
mem_bus_cpp.cpython-37m-x86_64-linux-gnu.so:     file format elf64-x86-64


Disassembly of section .init:

0000000000005000 <_init>:
    5000:	f3 0f 1e fa          	endbr64 
    5004:	48 83 ec 08          	sub    $0x8,%rsp
    5008:	48 8b 05 d9 df 01 00 	mov    0x1dfd9(%rip),%rax        # 22fe8 <__gmon_start__>
    500f:	48 85 c0             	test   %rax,%rax
    5012:	74 02                	je     5016 <_init+0x16>
    5014:	ff d0                	callq  *%rax
    5016:	48 83 c4 08          	add    $0x8,%rsp
    501a:	c3                   	retq   

Disassembly of section .plt:

0000000000005020 <.plt>:
    5020:	ff 35 e2 df 01 00    	pushq  0x1dfe2(%rip)        # 23008 <_GLOBAL_OFFSET_TABLE_+0x8>
    5026:	ff 25 e4 df 01 00    	jmpq   *0x1dfe4(%rip)        # 23010 <_GLOBAL_OFFSET_TABLE_+0x10>
    502c:	0f 1f 40 00          	nopl   0x0(%rax)

0000000000005030 <PyTuple_SetItem@plt>:
    5030:	ff 25 e2 df 01 00    	jmpq   *0x1dfe2(%rip)        # 23018 <PyTuple_SetItem>
    5036:	68 00 00 00 00       	pushq  $0x0
    503b:	e9 e0 ff ff ff       	jmpq   5020 <.plt>

0000000000005040 <_ZNSt6vectorIP11_typeobjectSaIS1_EE17_M_realloc_insertIJS1_EEEvN9__gnu_cxx17__normal_iteratorIPS1_S3_EEDpOT_@plt>:
    5040:	ff 25 da df 01 00    	jmpq   *0x1dfda(%rip)        # 23020 <_ZNSt6vectorIP11_typeobjectSaIS1_EE17_M_realloc_insertIJS1_EEEvN9__gnu_cxx17__normal_iteratorIPS1_S3_EEDpOT_@@Base+0x1af90>
    5046:	68 01 00 00 00       	pushq  $0x1
    504b:	e9 d0 ff ff ff       	jmpq   5020 <.plt>

0000000000005050 <PyObject_GetBuffer@plt>:
    5050:	ff 25 d2 df 01 00    	jmpq   *0x1dfd2(%rip)        # 23028 <PyObject_GetBuffer>
    5056:	68 02 00 00 00       	pushq  $0x2
    505b:	e9 c0 ff ff ff       	jmpq   5020 <.plt>

0000000000005060 <PyObject_Repr@plt>:
    5060:	ff 25 ca df 01 00    	jmpq   *0x1dfca(%rip)        # 23030 <PyObject_Repr>
    5066:	68 03 00 00 00       	pushq  $0x3
    506b:	e9 b0 ff ff ff       	jmpq   5020 <.plt>

0000000000005070 <PyLong_AsLong@plt>:
    5070:	ff 25 c2 df 01 00    	jmpq   *0x1dfc2(%rip)        # 23038 <PyLong_AsLong>
    5076:	68 04 00 00 00       	pushq  $0x4
    507b:	e9 a0 ff ff ff       	jmpq   5020 <.plt>

0000000000005080 <_ZSt11_Hash_bytesPKvmm@plt>:
    5080:	ff 25 ba df 01 00    	jmpq   *0x1dfba(%rip)        # 23040 <_ZSt11_Hash_bytesPKvmm@CXXABI_1.3.5>
    5086:	68 05 00 00 00       	pushq  $0x5
    508b:	e9 90 ff ff ff       	jmpq   5020 <.plt>

0000000000005090 <PyDict_GetItemString@plt>:
    5090:	ff 25 b2 df 01 00    	jmpq   *0x1dfb2(%rip)        # 23048 <PyDict_GetItemString>
    5096:	68 06 00 00 00       	pushq  $0x6
    509b:	e9 80 ff ff ff       	jmpq   5020 <.plt>

00000000000050a0 <_ZStplIcSt11char_traitsIcESaIcEENSt7__cxx1112basic_stringIT_T0_T1_EEOS8_PKS5_@plt>:
    50a0:	ff 25 aa df 01 00    	jmpq   *0x1dfaa(%rip)        # 23050 <_ZStplIcSt11char_traitsIcESaIcEENSt7__cxx1112basic_stringIT_T0_T1_EEOS8_PKS5_@@Base+0x1bbb0>
    50a6:	68 07 00 00 00       	pushq  $0x7
    50ab:	e9 70 ff ff ff       	jmpq   5020 <.plt>

00000000000050b0 <PyErr_NormalizeException@plt>:
    50b0:	ff 25 a2 df 01 00    	jmpq   *0x1dfa2(%rip)        # 23058 <PyErr_NormalizeException>
    50b6:	68 08 00 00 00       	pushq  $0x8
    50bb:	e9 60 ff ff ff       	jmpq   5020 <.plt>

00000000000050c0 <PyInstanceMethod_New@plt>:
    50c0:	ff 25 9a df 01 00    	jmpq   *0x1df9a(%rip)        # 23060 <PyInstanceMethod_New>
    50c6:	68 09 00 00 00       	pushq  $0x9
    50cb:	e9 50 ff ff ff       	jmpq   5020 <.plt>

00000000000050d0 <PyEval_AcquireThread@plt>:
    50d0:	ff 25 92 df 01 00    	jmpq   *0x1df92(%rip)        # 23068 <PyEval_AcquireThread>
    50d6:	68 0a 00 00 00       	pushq  $0xa
    50db:	e9 40 ff ff ff       	jmpq   5020 <.plt>

00000000000050e0 <PyObject_Str@plt>:
    50e0:	ff 25 8a df 01 00    	jmpq   *0x1df8a(%rip)        # 23070 <PyObject_Str>
    50e6:	68 0b 00 00 00       	pushq  $0xb
    50eb:	e9 30 ff ff ff       	jmpq   5020 <.plt>

00000000000050f0 <PyThreadState_DeleteCurrent@plt>:
    50f0:	ff 25 82 df 01 00    	jmpq   *0x1df82(%rip)        # 23078 <PyThreadState_DeleteCurrent>
    50f6:	68 0c 00 00 00       	pushq  $0xc
    50fb:	e9 20 ff ff ff       	jmpq   5020 <.plt>

0000000000005100 <PyGILState_GetThisThreadState@plt>:
    5100:	ff 25 7a df 01 00    	jmpq   *0x1df7a(%rip)        # 23080 <PyGILState_GetThisThreadState>
    5106:	68 0d 00 00 00       	pushq  $0xd
    510b:	e9 10 ff ff ff       	jmpq   5020 <.plt>

0000000000005110 <_ZNSt7__cxx1112basic_stringIcSt11char_traitsIcESaIcEE9_M_appendEPKcm@plt>:
    5110:	ff 25 72 df 01 00    	jmpq   *0x1df72(%rip)        # 23088 <_ZNSt7__cxx1112basic_stringIcSt11char_traitsIcESaIcEE9_M_appendEPKcm@GLIBCXX_3.4.21>
    5116:	68 0e 00 00 00       	pushq  $0xe
    511b:	e9 00 ff ff ff       	jmpq   5020 <.plt>

0000000000005120 <PyObject_GetAttrString@plt>:
    5120:	ff 25 6a df 01 00    	jmpq   *0x1df6a(%rip)        # 23090 <PyObject_GetAttrString>
    5126:	68 0f 00 00 00       	pushq  $0xf
    512b:	e9 f0 fe ff ff       	jmpq   5020 <.plt>

0000000000005130 <_ZNSt15__exception_ptr13exception_ptr4swapERS0_@plt>:
    5130:	ff 25 62 df 01 00    	jmpq   *0x1df62(%rip)        # 23098 <_ZNSt15__exception_ptr13exception_ptr4swapERS0_@CXXABI_1.3.3>
    5136:	68 10 00 00 00       	pushq  $0x10
    513b:	e9 e0 fe ff ff       	jmpq   5020 <.plt>

0000000000005140 <_ZNSt8__detail9_Map_baseISt10type_indexSt4pairIKS1_St6vectorIPFbP7_objectRPvESaISA_EEESaISD_ENS_10_Select1stESt8equal_toIS1_ESt4hashIS1_ENS_18_Mod_range_hashingENS_20_Default_ranged_hashENS_20_Prime_rehash_policyENS_17_Hashtable_traitsILb0ELb0ELb1EEELb1EEixERS3_@plt>:
    5140:	ff 25 5a df 01 00    	jmpq   *0x1df5a(%rip)        # 230a0 <_ZNSt8__detail9_Map_baseISt10type_indexSt4pairIKS1_St6vectorIPFbP7_objectRPvESaISA_EEESaISD_ENS_10_Select1stESt8equal_toIS1_ESt4hashIS1_ENS_18_Mod_range_hashingENS_20_Default_ranged_hashENS_20_Prime_rehash_policyENS_17_Hashtable_traitsILb0ELb0ELb1EEELb1EEixERS3_@@Base+0x17580>
    5146:	68 11 00 00 00       	pushq  $0x11
    514b:	e9 d0 fe ff ff       	jmpq   5020 <.plt>

0000000000005150 <_ZNSt15__exception_ptr13exception_ptrC1ERKS0_@plt>:
    5150:	ff 25 52 df 01 00    	jmpq   *0x1df52(%rip)        # 230a8 <_ZNSt15__exception_ptr13exception_ptrC1ERKS0_@CXXABI_1.3.3>
    5156:	68 12 00 00 00       	pushq  $0x12
    515b:	e9 c0 fe ff ff       	jmpq   5020 <.plt>

0000000000005160 <PyMem_Free@plt>:
    5160:	ff 25 4a df 01 00    	jmpq   *0x1df4a(%rip)        # 230b0 <PyMem_Free>
    5166:	68 13 00 00 00       	pushq  $0x13
    516b:	e9 b0 fe ff ff       	jmpq   5020 <.plt>

0000000000005170 <_ZSt17__throw_bad_allocv@plt>:
    5170:	ff 25 42 df 01 00    	jmpq   *0x1df42(%rip)        # 230b8 <_ZSt17__throw_bad_allocv@GLIBCXX_3.4>
    5176:	68 14 00 00 00       	pushq  $0x14
    517b:	e9 a0 fe ff ff       	jmpq   5020 <.plt>

0000000000005180 <_ZNSt13runtime_errorC1EPKc@plt>:
    5180:	ff 25 3a df 01 00    	jmpq   *0x1df3a(%rip)        # 230c0 <_ZNSt13runtime_errorC1EPKc@GLIBCXX_3.4.21>
    5186:	68 15 00 00 00       	pushq  $0x15
    518b:	e9 90 fe ff ff       	jmpq   5020 <.plt>

0000000000005190 <PyErr_Restore@plt>:
    5190:	ff 25 32 df 01 00    	jmpq   *0x1df32(%rip)        # 230c8 <PyErr_Restore>
    5196:	68 16 00 00 00       	pushq  $0x16
    519b:	e9 80 fe ff ff       	jmpq   5020 <.plt>

00000000000051a0 <PyType_IsSubtype@plt>:
    51a0:	ff 25 2a df 01 00    	jmpq   *0x1df2a(%rip)        # 230d0 <PyType_IsSubtype>
    51a6:	68 17 00 00 00       	pushq  $0x17
    51ab:	e9 70 fe ff ff       	jmpq   5020 <.plt>

00000000000051b0 <__cxa_begin_catch@plt>:
    51b0:	ff 25 22 df 01 00    	jmpq   *0x1df22(%rip)        # 230d8 <__cxa_begin_catch@CXXABI_1.3>
    51b6:	68 18 00 00 00       	pushq  $0x18
    51bb:	e9 60 fe ff ff       	jmpq   5020 <.plt>

00000000000051c0 <_ZNSt6vectorIP7_objectSaIS1_EE17_M_realloc_insertIJS1_EEEvN9__gnu_cxx17__normal_iteratorIPS1_S3_EEDpOT_@plt>:
    51c0:	ff 25 1a df 01 00    	jmpq   *0x1df1a(%rip)        # 230e0 <_ZNSt6vectorIP7_objectSaIS1_EE17_M_realloc_insertIJS1_EEEvN9__gnu_cxx17__normal_iteratorIPS1_S3_EEDpOT_@@Base+0x1b1c0>
    51c6:	68 19 00 00 00       	pushq  $0x19
    51cb:	e9 50 fe ff ff       	jmpq   5020 <.plt>

00000000000051d0 <strlen@plt>:
    51d0:	ff 25 12 df 01 00    	jmpq   *0x1df12(%rip)        # 230e8 <strlen@GLIBC_2.2.5>
    51d6:	68 1a 00 00 00       	pushq  $0x1a
    51db:	e9 40 fe ff ff       	jmpq   5020 <.plt>

00000000000051e0 <PyErr_WarnEx@plt>:
    51e0:	ff 25 0a df 01 00    	jmpq   *0x1df0a(%rip)        # 230f0 <PyErr_WarnEx>
    51e6:	68 1b 00 00 00       	pushq  $0x1b
    51eb:	e9 30 fe ff ff       	jmpq   5020 <.plt>

00000000000051f0 <PyTuple_New@plt>:
    51f0:	ff 25 02 df 01 00    	jmpq   *0x1df02(%rip)        # 230f8 <PyTuple_New>
    51f6:	68 1c 00 00 00       	pushq  $0x1c
    51fb:	e9 20 fe ff ff       	jmpq   5020 <.plt>

0000000000005200 <PyObject_SetAttr@plt>:
    5200:	ff 25 fa de 01 00    	jmpq   *0x1defa(%rip)        # 23100 <PyObject_SetAttr>
    5206:	68 1d 00 00 00       	pushq  $0x1d
    520b:	e9 10 fe ff ff       	jmpq   5020 <.plt>

0000000000005210 <__cxa_allocate_exception@plt>:
    5210:	ff 25 f2 de 01 00    	jmpq   *0x1def2(%rip)        # 23108 <__cxa_allocate_exception@CXXABI_1.3>
    5216:	68 1e 00 00 00       	pushq  $0x1e
    521b:	e9 00 fe ff ff       	jmpq   5020 <.plt>

0000000000005220 <PyObject_IsInstance@plt>:
    5220:	ff 25 ea de 01 00    	jmpq   *0x1deea(%rip)        # 23110 <PyObject_IsInstance>
    5226:	68 1f 00 00 00       	pushq  $0x1f
    522b:	e9 f0 fd ff ff       	jmpq   5020 <.plt>

0000000000005230 <PyException_SetTraceback@plt>:
    5230:	ff 25 e2 de 01 00    	jmpq   *0x1dee2(%rip)        # 23118 <PyException_SetTraceback>
    5236:	68 20 00 00 00       	pushq  $0x20
    523b:	e9 e0 fd ff ff       	jmpq   5020 <.plt>

0000000000005240 <_ZSt20__throw_length_errorPKc@plt>:
    5240:	ff 25 da de 01 00    	jmpq   *0x1deda(%rip)        # 23120 <_ZSt20__throw_length_errorPKc@GLIBCXX_3.4>
    5246:	68 21 00 00 00       	pushq  $0x21
    524b:	e9 d0 fd ff ff       	jmpq   5020 <.plt>

0000000000005250 <PyUnicode_FromFormat@plt>:
    5250:	ff 25 d2 de 01 00    	jmpq   *0x1ded2(%rip)        # 23128 <PyUnicode_FromFormat>
    5256:	68 22 00 00 00       	pushq  $0x22
    525b:	e9 c0 fd ff ff       	jmpq   5020 <.plt>

0000000000005260 <memset@plt>:
    5260:	ff 25 ca de 01 00    	jmpq   *0x1deca(%rip)        # 23130 <memset@GLIBC_2.2.5>
    5266:	68 23 00 00 00       	pushq  $0x23
    526b:	e9 b0 fd ff ff       	jmpq   5020 <.plt>

0000000000005270 <PyList_Append@plt>:
    5270:	ff 25 c2 de 01 00    	jmpq   *0x1dec2(%rip)        # 23138 <PyList_Append>
    5276:	68 24 00 00 00       	pushq  $0x24
    527b:	e9 a0 fd ff ff       	jmpq   5020 <.plt>

0000000000005280 <_ZNSt10_HashtableISt10type_indexSt4pairIKS0_St6vectorIPFbP7_objectRPvESaIS9_EEESaISC_ENSt8__detail10_Select1stESt8equal_toIS0_ESt4hashIS0_ENSE_18_Mod_range_hashingENSE_20_Default_ranged_hashENSE_20_Prime_rehash_policyENSE_17_Hashtable_traitsILb0ELb0ELb1EEEE9_M_rehashEmRKm@plt>:
    5280:	ff 25 ba de 01 00    	jmpq   *0x1deba(%rip)        # 23140 <_ZNSt10_HashtableISt10type_indexSt4pairIKS0_St6vectorIPFbP7_objectRPvESaIS9_EEESaISC_ENSt8__detail10_Select1stESt8equal_toIS0_ESt4hashIS0_ENSE_18_Mod_range_hashingENSE_20_Default_ranged_hashENSE_20_Prime_rehash_policyENSE_17_Hashtable_traitsILb0ELb0ELb1EEEE9_M_rehashEmRKm@@Base+0x178f0>
    5286:	68 25 00 00 00       	pushq  $0x25
    528b:	e9 90 fd ff ff       	jmpq   5020 <.plt>

0000000000005290 <PyDict_Next@plt>:
    5290:	ff 25 b2 de 01 00    	jmpq   *0x1deb2(%rip)        # 23148 <PyDict_Next>
    5296:	68 26 00 00 00       	pushq  $0x26
    529b:	e9 80 fd ff ff       	jmpq   5020 <.plt>

00000000000052a0 <PyList_Size@plt>:
    52a0:	ff 25 aa de 01 00    	jmpq   *0x1deaa(%rip)        # 23150 <PyList_Size>
    52a6:	68 27 00 00 00       	pushq  $0x27
    52ab:	e9 70 fd ff ff       	jmpq   5020 <.plt>

00000000000052b0 <PyTuple_Size@plt>:
    52b0:	ff 25 a2 de 01 00    	jmpq   *0x1dea2(%rip)        # 23158 <PyTuple_Size>
    52b6:	68 28 00 00 00       	pushq  $0x28
    52bb:	e9 60 fd ff ff       	jmpq   5020 <.plt>

00000000000052c0 <__cxa_guard_abort@plt>:
    52c0:	ff 25 9a de 01 00    	jmpq   *0x1de9a(%rip)        # 23160 <__cxa_guard_abort@CXXABI_1.3>
    52c6:	68 29 00 00 00       	pushq  $0x29
    52cb:	e9 50 fd ff ff       	jmpq   5020 <.plt>

00000000000052d0 <__cxa_guard_release@plt>:
    52d0:	ff 25 92 de 01 00    	jmpq   *0x1de92(%rip)        # 23168 <__cxa_guard_release@CXXABI_1.3>
    52d6:	68 2a 00 00 00       	pushq  $0x2a
    52db:	e9 40 fd ff ff       	jmpq   5020 <.plt>

00000000000052e0 <PyNumber_Long@plt>:
    52e0:	ff 25 8a de 01 00    	jmpq   *0x1de8a(%rip)        # 23170 <PyNumber_Long>
    52e6:	68 2b 00 00 00       	pushq  $0x2b
    52eb:	e9 30 fd ff ff       	jmpq   5020 <.plt>

00000000000052f0 <__assert_fail@plt>:
    52f0:	ff 25 82 de 01 00    	jmpq   *0x1de82(%rip)        # 23178 <__assert_fail@GLIBC_2.2.5>
    52f6:	68 2c 00 00 00       	pushq  $0x2c
    52fb:	e9 20 fd ff ff       	jmpq   5020 <.plt>

0000000000005300 <PyBuffer_Release@plt>:
    5300:	ff 25 7a de 01 00    	jmpq   *0x1de7a(%rip)        # 23180 <PyBuffer_Release>
    5306:	68 2d 00 00 00       	pushq  $0x2d
    530b:	e9 10 fd ff ff       	jmpq   5020 <.plt>

0000000000005310 <PyErr_Format@plt>:
    5310:	ff 25 72 de 01 00    	jmpq   *0x1de72(%rip)        # 23188 <PyErr_Format>
    5316:	68 2e 00 00 00       	pushq  $0x2e
    531b:	e9 00 fd ff ff       	jmpq   5020 <.plt>

0000000000005320 <PyObject_CallObject@plt>:
    5320:	ff 25 6a de 01 00    	jmpq   *0x1de6a(%rip)        # 23190 <PyObject_CallObject>
    5326:	68 2f 00 00 00       	pushq  $0x2f
    532b:	e9 f0 fc ff ff       	jmpq   5020 <.plt>

0000000000005330 <_ZSt19__throw_logic_errorPKc@plt>:
    5330:	ff 25 62 de 01 00    	jmpq   *0x1de62(%rip)        # 23198 <_ZSt19__throw_logic_errorPKc@GLIBCXX_3.4>
    5336:	68 30 00 00 00       	pushq  $0x30
    533b:	e9 e0 fc ff ff       	jmpq   5020 <.plt>

0000000000005340 <__cxa_free_exception@plt>:
    5340:	ff 25 5a de 01 00    	jmpq   *0x1de5a(%rip)        # 231a0 <__cxa_free_exception@CXXABI_1.3>
    5346:	68 31 00 00 00       	pushq  $0x31
    534b:	e9 d0 fc ff ff       	jmpq   5020 <.plt>

0000000000005350 <PyUnicode_DecodeUTF8@plt>:
    5350:	ff 25 52 de 01 00    	jmpq   *0x1de52(%rip)        # 231a8 <PyUnicode_DecodeUTF8>
    5356:	68 32 00 00 00       	pushq  $0x32
    535b:	e9 c0 fc ff ff       	jmpq   5020 <.plt>

0000000000005360 <PyErr_ExceptionMatches@plt>:
    5360:	ff 25 4a de 01 00    	jmpq   *0x1de4a(%rip)        # 231b0 <PyErr_ExceptionMatches>
    5366:	68 33 00 00 00       	pushq  $0x33
    536b:	e9 b0 fc ff ff       	jmpq   5020 <.plt>

0000000000005370 <PyCFunction_NewEx@plt>:
    5370:	ff 25 42 de 01 00    	jmpq   *0x1de42(%rip)        # 231b8 <PyCFunction_NewEx>
    5376:	68 34 00 00 00       	pushq  $0x34
    537b:	e9 a0 fc ff ff       	jmpq   5020 <.plt>

0000000000005380 <PyList_New@plt>:
    5380:	ff 25 3a de 01 00    	jmpq   *0x1de3a(%rip)        # 231c0 <PyList_New>
    5386:	68 35 00 00 00       	pushq  $0x35
    538b:	e9 90 fc ff ff       	jmpq   5020 <.plt>

0000000000005390 <memcpy@plt>:
    5390:	ff 25 32 de 01 00    	jmpq   *0x1de32(%rip)        # 231c8 <memcpy@GLIBC_2.14>
    5396:	68 36 00 00 00       	pushq  $0x36
    539b:	e9 80 fc ff ff       	jmpq   5020 <.plt>

00000000000053a0 <PyImport_ImportModule@plt>:
    53a0:	ff 25 2a de 01 00    	jmpq   *0x1de2a(%rip)        # 231d0 <PyImport_ImportModule>
    53a6:	68 37 00 00 00       	pushq  $0x37
    53ab:	e9 70 fc ff ff       	jmpq   5020 <.plt>

00000000000053b0 <PyNumber_Check@plt>:
    53b0:	ff 25 22 de 01 00    	jmpq   *0x1de22(%rip)        # 231d8 <PyNumber_Check>
    53b6:	68 38 00 00 00       	pushq  $0x38
    53bb:	e9 60 fc ff ff       	jmpq   5020 <.plt>

00000000000053c0 <_ZStplIcSt11char_traitsIcESaIcEENSt7__cxx1112basic_stringIT_T0_T1_EEOS8_S9_@plt>:
    53c0:	ff 25 1a de 01 00    	jmpq   *0x1de1a(%rip)        # 231e0 <_ZStplIcSt11char_traitsIcESaIcEENSt7__cxx1112basic_stringIT_T0_T1_EEOS8_S9_@@Base+0x1bc20>
    53c6:	68 39 00 00 00       	pushq  $0x39
    53cb:	e9 50 fc ff ff       	jmpq   5020 <.plt>

00000000000053d0 <_PyObject_GetDictPtr@plt>:
    53d0:	ff 25 12 de 01 00    	jmpq   *0x1de12(%rip)        # 231e8 <_PyObject_GetDictPtr>
    53d6:	68 3a 00 00 00       	pushq  $0x3a
    53db:	e9 40 fc ff ff       	jmpq   5020 <.plt>

00000000000053e0 <PyUnicode_FromString@plt>:
    53e0:	ff 25 0a de 01 00    	jmpq   *0x1de0a(%rip)        # 231f0 <PyUnicode_FromString>
    53e6:	68 3b 00 00 00       	pushq  $0x3b
    53eb:	e9 30 fc ff ff       	jmpq   5020 <.plt>

00000000000053f0 <__cxa_demangle@plt>:
    53f0:	ff 25 02 de 01 00    	jmpq   *0x1de02(%rip)        # 231f8 <__cxa_demangle@CXXABI_1.3>
    53f6:	68 3c 00 00 00       	pushq  $0x3c
    53fb:	e9 20 fc ff ff       	jmpq   5020 <.plt>

0000000000005400 <Py_GetVersion@plt>:
    5400:	ff 25 fa dd 01 00    	jmpq   *0x1ddfa(%rip)        # 23200 <Py_GetVersion>
    5406:	68 3d 00 00 00       	pushq  $0x3d
    540b:	e9 10 fc ff ff       	jmpq   5020 <.plt>

0000000000005410 <PyCapsule_SetContext@plt>:
    5410:	ff 25 f2 dd 01 00    	jmpq   *0x1ddf2(%rip)        # 23208 <PyCapsule_SetContext>
    5416:	68 3e 00 00 00       	pushq  $0x3e
    541b:	e9 00 fc ff ff       	jmpq   5020 <.plt>

0000000000005420 <PyFrame_GetLineNumber@plt>:
    5420:	ff 25 ea dd 01 00    	jmpq   *0x1ddea(%rip)        # 23210 <PyFrame_GetLineNumber>
    5426:	68 3f 00 00 00       	pushq  $0x3f
    542b:	e9 f0 fb ff ff       	jmpq   5020 <.plt>

0000000000005430 <PyThread_tss_get@plt>:
    5430:	ff 25 e2 dd 01 00    	jmpq   *0x1dde2(%rip)        # 23218 <PyThread_tss_get>
    5436:	68 40 00 00 00       	pushq  $0x40
    543b:	e9 e0 fb ff ff       	jmpq   5020 <.plt>

0000000000005440 <__cxa_atexit@plt>:
    5440:	ff 25 da dd 01 00    	jmpq   *0x1ddda(%rip)        # 23220 <__cxa_atexit@GLIBC_2.2.5>
    5446:	68 41 00 00 00       	pushq  $0x41
    544b:	e9 d0 fb ff ff       	jmpq   5020 <.plt>

0000000000005450 <_ZStplIcSt11char_traitsIcESaIcEENSt7__cxx1112basic_stringIT_T0_T1_EEPKS5_RKS8_@plt>:
    5450:	ff 25 d2 dd 01 00    	jmpq   *0x1ddd2(%rip)        # 23228 <_ZStplIcSt11char_traitsIcESaIcEENSt7__cxx1112basic_stringIT_T0_T1_EEPKS5_RKS8_@@Base+0x1be38>
    5456:	68 42 00 00 00       	pushq  $0x42
    545b:	e9 c0 fb ff ff       	jmpq   5020 <.plt>

0000000000005460 <PyBytes_Size@plt>:
    5460:	ff 25 ca dd 01 00    	jmpq   *0x1ddca(%rip)        # 23230 <PyBytes_Size>
    5466:	68 43 00 00 00       	pushq  $0x43
    546b:	e9 b0 fb ff ff       	jmpq   5020 <.plt>

0000000000005470 <_ZNSt10_HashtableISt10type_indexSt4pairIKS0_St6vectorIPFbP7_objectRPvESaIS9_EEESaISC_ENSt8__detail10_Select1stESt8equal_toIS0_ESt4hashIS0_ENSE_18_Mod_range_hashingENSE_20_Default_ranged_hashENSE_20_Prime_rehash_policyENSE_17_Hashtable_traitsILb0ELb0ELb1EEEE21_M_insert_unique_nodeEmmPNSE_10_Hash_nodeISC_Lb0EEEm@plt>:
    5470:	ff 25 c2 dd 01 00    	jmpq   *0x1ddc2(%rip)        # 23238 <_ZNSt10_HashtableISt10type_indexSt4pairIKS0_St6vectorIPFbP7_objectRPvESaIS9_EEESaISC_ENSt8__detail10_Select1stESt8equal_toIS0_ESt4hashIS0_ENSE_18_Mod_range_hashingENSE_20_Default_ranged_hashENSE_20_Prime_rehash_policyENSE_17_Hashtable_traitsILb0ELb0ELb1EEEE21_M_insert_unique_nodeEmmPNSE_10_Hash_nodeISC_Lb0EEEm@@Base+0x17868>
    5476:	68 44 00 00 00       	pushq  $0x44
    547b:	e9 a0 fb ff ff       	jmpq   5020 <.plt>

0000000000005480 <PyList_GetItem@plt>:
    5480:	ff 25 ba dd 01 00    	jmpq   *0x1ddba(%rip)        # 23240 <PyList_GetItem>
    5486:	68 45 00 00 00       	pushq  $0x45
    548b:	e9 90 fb ff ff       	jmpq   5020 <.plt>

0000000000005490 <_ZdlPv@plt>:
    5490:	ff 25 b2 dd 01 00    	jmpq   *0x1ddb2(%rip)        # 23248 <_ZdlPv@GLIBCXX_3.4>
    5496:	68 46 00 00 00       	pushq  $0x46
    549b:	e9 80 fb ff ff       	jmpq   5020 <.plt>

00000000000054a0 <PyErr_Clear@plt>:
    54a0:	ff 25 aa dd 01 00    	jmpq   *0x1ddaa(%rip)        # 23250 <PyErr_Clear>
    54a6:	68 47 00 00 00       	pushq  $0x47
    54ab:	e9 70 fb ff ff       	jmpq   5020 <.plt>

00000000000054b0 <_Znwm@plt>:
    54b0:	ff 25 a2 dd 01 00    	jmpq   *0x1dda2(%rip)        # 23258 <_Znwm@GLIBCXX_3.4>
    54b6:	68 48 00 00 00       	pushq  $0x48
    54bb:	e9 60 fb ff ff       	jmpq   5020 <.plt>

00000000000054c0 <PyObject_HasAttrString@plt>:
    54c0:	ff 25 9a dd 01 00    	jmpq   *0x1dd9a(%rip)        # 23260 <PyObject_HasAttrString>
    54c6:	68 49 00 00 00       	pushq  $0x49
    54cb:	e9 50 fb ff ff       	jmpq   5020 <.plt>

00000000000054d0 <_ZdlPvm@plt>:
    54d0:	ff 25 92 dd 01 00    	jmpq   *0x1dd92(%rip)        # 23268 <_ZdlPvm@CXXABI_1.3.9>
    54d6:	68 4a 00 00 00       	pushq  $0x4a
    54db:	e9 40 fb ff ff       	jmpq   5020 <.plt>

00000000000054e0 <_ZSt17rethrow_exceptionNSt15__exception_ptr13exception_ptrE@plt>:
    54e0:	ff 25 8a dd 01 00    	jmpq   *0x1dd8a(%rip)        # 23270 <_ZSt17rethrow_exceptionNSt15__exception_ptr13exception_ptrE@CXXABI_1.3.3>
    54e6:	68 4b 00 00 00       	pushq  $0x4b
    54eb:	e9 30 fb ff ff       	jmpq   5020 <.plt>

00000000000054f0 <PyWeakref_NewRef@plt>:
    54f0:	ff 25 82 dd 01 00    	jmpq   *0x1dd82(%rip)        # 23278 <PyWeakref_NewRef>
    54f6:	68 4c 00 00 00       	pushq  $0x4c
    54fb:	e9 20 fb ff ff       	jmpq   5020 <.plt>

0000000000005500 <_ZSt17current_exceptionv@plt>:
    5500:	ff 25 7a dd 01 00    	jmpq   *0x1dd7a(%rip)        # 23280 <_ZSt17current_exceptionv@CXXABI_1.3.3>
    5506:	68 4d 00 00 00       	pushq  $0x4d
    550b:	e9 10 fb ff ff       	jmpq   5020 <.plt>

0000000000005510 <_ZNSt13runtime_errorD2Ev@plt>:
    5510:	ff 25 72 dd 01 00    	jmpq   *0x1dd72(%rip)        # 23288 <_ZNSt13runtime_errorD2Ev@GLIBCXX_3.4>
    5516:	68 4e 00 00 00       	pushq  $0x4e
    551b:	e9 00 fb ff ff       	jmpq   5020 <.plt>

0000000000005520 <__stack_chk_fail@plt>:
    5520:	ff 25 6a dd 01 00    	jmpq   *0x1dd6a(%rip)        # 23290 <__stack_chk_fail@GLIBC_2.4>
    5526:	68 4f 00 00 00       	pushq  $0x4f
    552b:	e9 f0 fa ff ff       	jmpq   5020 <.plt>

0000000000005530 <PyDict_New@plt>:
    5530:	ff 25 62 dd 01 00    	jmpq   *0x1dd62(%rip)        # 23298 <PyDict_New>
    5536:	68 50 00 00 00       	pushq  $0x50
    553b:	e9 e0 fa ff ff       	jmpq   5020 <.plt>

0000000000005540 <PyErr_SetString@plt>:
    5540:	ff 25 5a dd 01 00    	jmpq   *0x1dd5a(%rip)        # 232a0 <PyErr_SetString>
    5546:	68 51 00 00 00       	pushq  $0x51
    554b:	e9 d0 fa ff ff       	jmpq   5020 <.plt>

0000000000005550 <PyEval_InitThreads@plt>:
    5550:	ff 25 52 dd 01 00    	jmpq   *0x1dd52(%rip)        # 232a8 <PyEval_InitThreads>
    5556:	68 52 00 00 00       	pushq  $0x52
    555b:	e9 c0 fa ff ff       	jmpq   5020 <.plt>

0000000000005560 <PyCapsule_GetContext@plt>:
    5560:	ff 25 4a dd 01 00    	jmpq   *0x1dd4a(%rip)        # 232b0 <PyCapsule_GetContext>
    5566:	68 53 00 00 00       	pushq  $0x53
    556b:	e9 b0 fa ff ff       	jmpq   5020 <.plt>

0000000000005570 <_ZNSt7__cxx1112basic_stringIcSt11char_traitsIcESaIcEE8_M_eraseEmm@plt>:
    5570:	ff 25 42 dd 01 00    	jmpq   *0x1dd42(%rip)        # 232b8 <_ZNSt7__cxx1112basic_stringIcSt11char_traitsIcESaIcEE8_M_eraseEmm@GLIBCXX_3.4.21>
    5576:	68 54 00 00 00       	pushq  $0x54
    557b:	e9 a0 fa ff ff       	jmpq   5020 <.plt>

0000000000005580 <free@plt>:
    5580:	ff 25 3a dd 01 00    	jmpq   *0x1dd3a(%rip)        # 232c0 <free@GLIBC_2.2.5>
    5586:	68 55 00 00 00       	pushq  $0x55
    558b:	e9 90 fa ff ff       	jmpq   5020 <.plt>

0000000000005590 <PyThreadState_Get@plt>:
    5590:	ff 25 32 dd 01 00    	jmpq   *0x1dd32(%rip)        # 232c8 <PyThreadState_Get>
    5596:	68 56 00 00 00       	pushq  $0x56
    559b:	e9 80 fa ff ff       	jmpq   5020 <.plt>

00000000000055a0 <PyObject_SetItem@plt>:
    55a0:	ff 25 2a dd 01 00    	jmpq   *0x1dd2a(%rip)        # 232d0 <PyObject_SetItem>
    55a6:	68 57 00 00 00       	pushq  $0x57
    55ab:	e9 70 fa ff ff       	jmpq   5020 <.plt>

00000000000055b0 <PyCapsule_New@plt>:
    55b0:	ff 25 22 dd 01 00    	jmpq   *0x1dd22(%rip)        # 232d8 <PyCapsule_New>
    55b6:	68 58 00 00 00       	pushq  $0x58
    55bb:	e9 60 fa ff ff       	jmpq   5020 <.plt>

00000000000055c0 <_ZNSt6vectorIbSaIbEE14_M_fill_insertESt13_Bit_iteratormb@plt>:
    55c0:	ff 25 1a dd 01 00    	jmpq   *0x1dd1a(%rip)        # 232e0 <_ZNSt6vectorIbSaIbEE14_M_fill_insertESt13_Bit_iteratormb@@Base+0x1b0e0>
    55c6:	68 59 00 00 00       	pushq  $0x59
    55cb:	e9 50 fa ff ff       	jmpq   5020 <.plt>

00000000000055d0 <_ZNSt13runtime_errorC2ERKNSt7__cxx1112basic_stringIcSt11char_traitsIcESaIcEEE@plt>:
    55d0:	ff 25 12 dd 01 00    	jmpq   *0x1dd12(%rip)        # 232e8 <_ZNSt13runtime_errorC2ERKNSt7__cxx1112basic_stringIcSt11char_traitsIcESaIcEEE@GLIBCXX_3.4.21>
    55d6:	68 5a 00 00 00       	pushq  $0x5a
    55db:	e9 40 fa ff ff       	jmpq   5020 <.plt>

00000000000055e0 <PyMem_Calloc@plt>:
    55e0:	ff 25 0a dd 01 00    	jmpq   *0x1dd0a(%rip)        # 232f0 <PyMem_Calloc>
    55e6:	68 5b 00 00 00       	pushq  $0x5b
    55eb:	e9 30 fa ff ff       	jmpq   5020 <.plt>

00000000000055f0 <PyObject_SetAttrString@plt>:
    55f0:	ff 25 02 dd 01 00    	jmpq   *0x1dd02(%rip)        # 232f8 <PyObject_SetAttrString>
    55f6:	68 5c 00 00 00       	pushq  $0x5c
    55fb:	e9 20 fa ff ff       	jmpq   5020 <.plt>

0000000000005600 <_ZNKSt7__cxx1112basic_stringIcSt11char_traitsIcESaIcEE4findEcm@plt>:
    5600:	ff 25 fa dc 01 00    	jmpq   *0x1dcfa(%rip)        # 23300 <_ZNKSt7__cxx1112basic_stringIcSt11char_traitsIcESaIcEE4findEcm@GLIBCXX_3.4.21>
    5606:	68 5d 00 00 00       	pushq  $0x5d
    560b:	e9 10 fa ff ff       	jmpq   5020 <.plt>

0000000000005610 <PyGILState_Release@plt>:
    5610:	ff 25 f2 dc 01 00    	jmpq   *0x1dcf2(%rip)        # 23308 <PyGILState_Release>
    5616:	68 5e 00 00 00       	pushq  $0x5e
    561b:	e9 00 fa ff ff       	jmpq   5020 <.plt>

0000000000005620 <PyCapsule_GetPointer@plt>:
    5620:	ff 25 ea dc 01 00    	jmpq   *0x1dcea(%rip)        # 23310 <PyCapsule_GetPointer>
    5626:	68 5f 00 00 00       	pushq  $0x5f
    562b:	e9 f0 f9 ff ff       	jmpq   5020 <.plt>

0000000000005630 <_ZNKSt8__detail20_Prime_rehash_policy14_M_need_rehashEmmm@plt>:
    5630:	ff 25 e2 dc 01 00    	jmpq   *0x1dce2(%rip)        # 23318 <_ZNKSt8__detail20_Prime_rehash_policy14_M_need_rehashEmmm@GLIBCXX_3.4.18>
    5636:	68 60 00 00 00       	pushq  $0x60
    563b:	e9 e0 f9 ff ff       	jmpq   5020 <.plt>

0000000000005640 <PyThread_tss_alloc@plt>:
    5640:	ff 25 da dc 01 00    	jmpq   *0x1dcda(%rip)        # 23320 <PyThread_tss_alloc>
    5646:	68 61 00 00 00       	pushq  $0x61
    564b:	e9 d0 f9 ff ff       	jmpq   5020 <.plt>

0000000000005650 <PyBytes_AsString@plt>:
    5650:	ff 25 d2 dc 01 00    	jmpq   *0x1dcd2(%rip)        # 23328 <PyBytes_AsString>
    5656:	68 62 00 00 00       	pushq  $0x62
    565b:	e9 c0 f9 ff ff       	jmpq   5020 <.plt>

0000000000005660 <_ZNKSt7__cxx1112basic_stringIcSt11char_traitsIcESaIcEE5rfindEPKcmm@plt>:
    5660:	ff 25 ca dc 01 00    	jmpq   *0x1dcca(%rip)        # 23330 <_ZNKSt7__cxx1112basic_stringIcSt11char_traitsIcESaIcEE5rfindEPKcmm@GLIBCXX_3.4.21>
    5666:	68 63 00 00 00       	pushq  $0x63
    566b:	e9 b0 f9 ff ff       	jmpq   5020 <.plt>

0000000000005670 <PyThread_tss_set@plt>:
    5670:	ff 25 c2 dc 01 00    	jmpq   *0x1dcc2(%rip)        # 23338 <PyThread_tss_set>
    5676:	68 64 00 00 00       	pushq  $0x64
    567b:	e9 a0 f9 ff ff       	jmpq   5020 <.plt>

0000000000005680 <PyObject_GetItem@plt>:
    5680:	ff 25 ba dc 01 00    	jmpq   *0x1dcba(%rip)        # 23340 <PyObject_GetItem>
    5686:	68 65 00 00 00       	pushq  $0x65
    568b:	e9 90 f9 ff ff       	jmpq   5020 <.plt>

0000000000005690 <strcmp@plt>:
    5690:	ff 25 b2 dc 01 00    	jmpq   *0x1dcb2(%rip)        # 23348 <strcmp@GLIBC_2.2.5>
    5696:	68 66 00 00 00       	pushq  $0x66
    569b:	e9 80 f9 ff ff       	jmpq   5020 <.plt>

00000000000056a0 <PyType_Ready@plt>:
    56a0:	ff 25 aa dc 01 00    	jmpq   *0x1dcaa(%rip)        # 23350 <PyType_Ready>
    56a6:	68 67 00 00 00       	pushq  $0x67
    56ab:	e9 70 f9 ff ff       	jmpq   5020 <.plt>

00000000000056b0 <PyEval_SaveThread@plt>:
    56b0:	ff 25 a2 dc 01 00    	jmpq   *0x1dca2(%rip)        # 23358 <PyEval_SaveThread>
    56b6:	68 68 00 00 00       	pushq  $0x68
    56bb:	e9 60 f9 ff ff       	jmpq   5020 <.plt>

00000000000056c0 <_ZNSt6vectorIbSaIbEE13_M_insert_auxESt13_Bit_iteratorb@plt>:
    56c0:	ff 25 9a dc 01 00    	jmpq   *0x1dc9a(%rip)        # 23360 <_ZNSt6vectorIbSaIbEE13_M_insert_auxESt13_Bit_iteratorb@@Base+0x1b9f0>
    56c6:	68 69 00 00 00       	pushq  $0x69
    56cb:	e9 50 f9 ff ff       	jmpq   5020 <.plt>

00000000000056d0 <__cxa_rethrow@plt>:
    56d0:	ff 25 92 dc 01 00    	jmpq   *0x1dc92(%rip)        # 23368 <__cxa_rethrow@CXXABI_1.3>
    56d6:	68 6a 00 00 00       	pushq  $0x6a
    56db:	e9 40 f9 ff ff       	jmpq   5020 <.plt>

00000000000056e0 <PyObject_ClearWeakRefs@plt>:
    56e0:	ff 25 8a dc 01 00    	jmpq   *0x1dc8a(%rip)        # 23370 <PyObject_ClearWeakRefs>
    56e6:	68 6b 00 00 00       	pushq  $0x6b
    56eb:	e9 30 f9 ff ff       	jmpq   5020 <.plt>

00000000000056f0 <GOMP_parallel@plt>:
    56f0:	ff 25 82 dc 01 00    	jmpq   *0x1dc82(%rip)        # 23378 <GOMP_parallel@GOMP_4.0>
    56f6:	68 6c 00 00 00       	pushq  $0x6c
    56fb:	e9 20 f9 ff ff       	jmpq   5020 <.plt>

0000000000005700 <PyEval_GetBuiltins@plt>:
    5700:	ff 25 7a dc 01 00    	jmpq   *0x1dc7a(%rip)        # 23380 <PyEval_GetBuiltins>
    5706:	68 6d 00 00 00       	pushq  $0x6d
    570b:	e9 10 f9 ff ff       	jmpq   5020 <.plt>

0000000000005710 <_ZSt24__throw_out_of_range_fmtPKcz@plt>:
    5710:	ff 25 72 dc 01 00    	jmpq   *0x1dc72(%rip)        # 23388 <_ZSt24__throw_out_of_range_fmtPKcz@GLIBCXX_3.4.20>
    5716:	68 6e 00 00 00       	pushq  $0x6e
    571b:	e9 00 f9 ff ff       	jmpq   5020 <.plt>

0000000000005720 <_ZNSt7__cxx1112basic_stringIcSt11char_traitsIcESaIcEE10_M_replaceEmmPKcm@plt>:
    5720:	ff 25 6a dc 01 00    	jmpq   *0x1dc6a(%rip)        # 23390 <_ZNSt7__cxx1112basic_stringIcSt11char_traitsIcESaIcEE10_M_replaceEmmPKcm@GLIBCXX_3.4.21>
    5726:	68 6f 00 00 00       	pushq  $0x6f
    572b:	e9 f0 f8 ff ff       	jmpq   5020 <.plt>

0000000000005730 <_ZNSt7__cxx1112basic_stringIcSt11char_traitsIcESaIcEE7reserveEm@plt>:
    5730:	ff 25 62 dc 01 00    	jmpq   *0x1dc62(%rip)        # 23398 <_ZNSt7__cxx1112basic_stringIcSt11char_traitsIcESaIcEE7reserveEm@GLIBCXX_3.4.21>
    5736:	68 70 00 00 00       	pushq  $0x70
    573b:	e9 e0 f8 ff ff       	jmpq   5020 <.plt>

0000000000005740 <PyModule_Create2@plt>:
    5740:	ff 25 5a dc 01 00    	jmpq   *0x1dc5a(%rip)        # 233a0 <PyModule_Create2>
    5746:	68 71 00 00 00       	pushq  $0x71
    574b:	e9 d0 f8 ff ff       	jmpq   5020 <.plt>

0000000000005750 <PyThread_tss_create@plt>:
    5750:	ff 25 52 dc 01 00    	jmpq   *0x1dc52(%rip)        # 233a8 <PyThread_tss_create>
    5756:	68 72 00 00 00       	pushq  $0x72
    575b:	e9 c0 f8 ff ff       	jmpq   5020 <.plt>

0000000000005760 <PyLong_FromSize_t@plt>:
    5760:	ff 25 4a dc 01 00    	jmpq   *0x1dc4a(%rip)        # 233b0 <PyLong_FromSize_t>
    5766:	68 73 00 00 00       	pushq  $0x73
    576b:	e9 b0 f8 ff ff       	jmpq   5020 <.plt>

0000000000005770 <PyUnicode_AsEncodedString@plt>:
    5770:	ff 25 42 dc 01 00    	jmpq   *0x1dc42(%rip)        # 233b8 <PyUnicode_AsEncodedString>
    5776:	68 74 00 00 00       	pushq  $0x74
    577b:	e9 a0 f8 ff ff       	jmpq   5020 <.plt>

0000000000005780 <PyErr_Occurred@plt>:
    5780:	ff 25 3a dc 01 00    	jmpq   *0x1dc3a(%rip)        # 233c0 <PyErr_Occurred>
    5786:	68 75 00 00 00       	pushq  $0x75
    578b:	e9 90 f8 ff ff       	jmpq   5020 <.plt>

0000000000005790 <_ZNSt13runtime_errorC1ERKNSt7__cxx1112basic_stringIcSt11char_traitsIcESaIcEEE@plt>:
    5790:	ff 25 32 dc 01 00    	jmpq   *0x1dc32(%rip)        # 233c8 <_ZNSt13runtime_errorC1ERKNSt7__cxx1112basic_stringIcSt11char_traitsIcESaIcEEE@GLIBCXX_3.4.21>
    5796:	68 76 00 00 00       	pushq  $0x76
    579b:	e9 80 f8 ff ff       	jmpq   5020 <.plt>

00000000000057a0 <memmove@plt>:
    57a0:	ff 25 2a dc 01 00    	jmpq   *0x1dc2a(%rip)        # 233d0 <memmove@GLIBC_2.2.5>
    57a6:	68 77 00 00 00       	pushq  $0x77
    57ab:	e9 70 f8 ff ff       	jmpq   5020 <.plt>

00000000000057b0 <__cxa_end_catch@plt>:
    57b0:	ff 25 22 dc 01 00    	jmpq   *0x1dc22(%rip)        # 233d8 <__cxa_end_catch@CXXABI_1.3>
    57b6:	68 78 00 00 00       	pushq  $0x78
    57bb:	e9 60 f8 ff ff       	jmpq   5020 <.plt>

00000000000057c0 <PyDict_Copy@plt>:
    57c0:	ff 25 1a dc 01 00    	jmpq   *0x1dc1a(%rip)        # 233e0 <PyDict_Copy>
    57c6:	68 79 00 00 00       	pushq  $0x79
    57cb:	e9 50 f8 ff ff       	jmpq   5020 <.plt>

00000000000057d0 <_ZNSt13_Bvector_baseISaIbEE13_M_deallocateEv@plt>:
    57d0:	ff 25 12 dc 01 00    	jmpq   *0x1dc12(%rip)        # 233e8 <_ZNSt13_Bvector_baseISaIbEE13_M_deallocateEv@@Base+0x1bab8>
    57d6:	68 7a 00 00 00       	pushq  $0x7a
    57db:	e9 40 f8 ff ff       	jmpq   5020 <.plt>

00000000000057e0 <PyErr_Fetch@plt>:
    57e0:	ff 25 0a dc 01 00    	jmpq   *0x1dc0a(%rip)        # 233f0 <PyErr_Fetch>
    57e6:	68 7b 00 00 00       	pushq  $0x7b
    57eb:	e9 30 f8 ff ff       	jmpq   5020 <.plt>

00000000000057f0 <PyThreadState_New@plt>:
    57f0:	ff 25 02 dc 01 00    	jmpq   *0x1dc02(%rip)        # 233f8 <PyThreadState_New>
    57f6:	68 7c 00 00 00       	pushq  $0x7c
    57fb:	e9 20 f8 ff ff       	jmpq   5020 <.plt>

0000000000005800 <_ZStplIcSt11char_traitsIcESaIcEENSt7__cxx1112basic_stringIT_T0_T1_EEPKS5_OS8_@plt>:
    5800:	ff 25 fa db 01 00    	jmpq   *0x1dbfa(%rip)        # 23400 <_ZStplIcSt11char_traitsIcESaIcEENSt7__cxx1112basic_stringIT_T0_T1_EEPKS5_OS8_@@Base+0x1bec0>
    5806:	68 7d 00 00 00       	pushq  $0x7d
    580b:	e9 10 f8 ff ff       	jmpq   5020 <.plt>

0000000000005810 <_PyThreadState_UncheckedGet@plt>:
    5810:	ff 25 f2 db 01 00    	jmpq   *0x1dbf2(%rip)        # 23408 <_PyThreadState_UncheckedGet>
    5816:	68 7e 00 00 00       	pushq  $0x7e
    581b:	e9 00 f8 ff ff       	jmpq   5020 <.plt>

0000000000005820 <__cxa_throw@plt>:
    5820:	ff 25 ea db 01 00    	jmpq   *0x1dbea(%rip)        # 23410 <__cxa_throw@CXXABI_1.3>
    5826:	68 7f 00 00 00       	pushq  $0x7f
    582b:	e9 f0 f7 ff ff       	jmpq   5020 <.plt>

0000000000005830 <_PyType_Lookup@plt>:
    5830:	ff 25 e2 db 01 00    	jmpq   *0x1dbe2(%rip)        # 23418 <_PyType_Lookup>
    5836:	68 80 00 00 00       	pushq  $0x80
    583b:	e9 e0 f7 ff ff       	jmpq   5020 <.plt>

0000000000005840 <_ZNKSt7__cxx1112basic_stringIcSt11char_traitsIcESaIcEE4findEPKcmm@plt>:
    5840:	ff 25 da db 01 00    	jmpq   *0x1dbda(%rip)        # 23420 <_ZNKSt7__cxx1112basic_stringIcSt11char_traitsIcESaIcEE4findEPKcmm@GLIBCXX_3.4.21>
    5846:	68 81 00 00 00       	pushq  $0x81
    584b:	e9 d0 f7 ff ff       	jmpq   5020 <.plt>

0000000000005850 <PyDict_Size@plt>:
    5850:	ff 25 d2 db 01 00    	jmpq   *0x1dbd2(%rip)        # 23428 <PyDict_Size>
    5856:	68 82 00 00 00       	pushq  $0x82
    585b:	e9 c0 f7 ff ff       	jmpq   5020 <.plt>

0000000000005860 <_Unwind_Resume@plt>:
    5860:	ff 25 ca db 01 00    	jmpq   *0x1dbca(%rip)        # 23430 <_Unwind_Resume@GCC_3.0>
    5866:	68 83 00 00 00       	pushq  $0x83
    586b:	e9 b0 f7 ff ff       	jmpq   5020 <.plt>

0000000000005870 <PySequence_Tuple@plt>:
    5870:	ff 25 c2 db 01 00    	jmpq   *0x1dbc2(%rip)        # 23438 <PySequence_Tuple>
    5876:	68 84 00 00 00       	pushq  $0x84
    587b:	e9 a0 f7 ff ff       	jmpq   5020 <.plt>

0000000000005880 <_ZNSt7__cxx1112basic_stringIcSt11char_traitsIcESaIcEE9_M_createERmm@plt>:
    5880:	ff 25 ba db 01 00    	jmpq   *0x1dbba(%rip)        # 23440 <_ZNSt7__cxx1112basic_stringIcSt11char_traitsIcESaIcEE9_M_createERmm@GLIBCXX_3.4.21>
    5886:	68 85 00 00 00       	pushq  $0x85
    588b:	e9 90 f7 ff ff       	jmpq   5020 <.plt>

0000000000005890 <_ZNSt7__cxx1112basic_stringIcSt11char_traitsIcESaIcEE9_M_mutateEmmPKcm@plt>:
    5890:	ff 25 b2 db 01 00    	jmpq   *0x1dbb2(%rip)        # 23448 <_ZNSt7__cxx1112basic_stringIcSt11char_traitsIcESaIcEE9_M_mutateEmmPKcm@GLIBCXX_3.4.21>
    5896:	68 86 00 00 00       	pushq  $0x86
    589b:	e9 80 f7 ff ff       	jmpq   5020 <.plt>

00000000000058a0 <__cxa_guard_acquire@plt>:
    58a0:	ff 25 aa db 01 00    	jmpq   *0x1dbaa(%rip)        # 23450 <__cxa_guard_acquire@CXXABI_1.3>
    58a6:	68 87 00 00 00       	pushq  $0x87
    58ab:	e9 70 f7 ff ff       	jmpq   5020 <.plt>

00000000000058b0 <PyThreadState_Clear@plt>:
    58b0:	ff 25 a2 db 01 00    	jmpq   *0x1dba2(%rip)        # 23458 <PyThreadState_Clear>
    58b6:	68 88 00 00 00       	pushq  $0x88
    58bb:	e9 60 f7 ff ff       	jmpq   5020 <.plt>

00000000000058c0 <PyDict_DelItemString@plt>:
    58c0:	ff 25 9a db 01 00    	jmpq   *0x1db9a(%rip)        # 23460 <PyDict_DelItemString>
    58c6:	68 89 00 00 00       	pushq  $0x89
    58cb:	e9 50 f7 ff ff       	jmpq   5020 <.plt>

00000000000058d0 <strdup@plt>:
    58d0:	ff 25 92 db 01 00    	jmpq   *0x1db92(%rip)        # 23468 <strdup@GLIBC_2.2.5>
    58d6:	68 8a 00 00 00       	pushq  $0x8a
    58db:	e9 40 f7 ff ff       	jmpq   5020 <.plt>

00000000000058e0 <_ZNSt15__exception_ptr13exception_ptrD1Ev@plt>:
    58e0:	ff 25 8a db 01 00    	jmpq   *0x1db8a(%rip)        # 23470 <_ZNSt15__exception_ptr13exception_ptrD1Ev@CXXABI_1.3.3>
    58e6:	68 8b 00 00 00       	pushq  $0x8b
    58eb:	e9 30 f7 ff ff       	jmpq   5020 <.plt>

00000000000058f0 <PyGILState_Ensure@plt>:
    58f0:	ff 25 82 db 01 00    	jmpq   *0x1db82(%rip)        # 23478 <PyGILState_Ensure>
    58f6:	68 8c 00 00 00       	pushq  $0x8c
    58fb:	e9 20 f7 ff ff       	jmpq   5020 <.plt>

0000000000005900 <PyObject_Malloc@plt>:
    5900:	ff 25 7a db 01 00    	jmpq   *0x1db7a(%rip)        # 23480 <PyObject_Malloc>
    5906:	68 8d 00 00 00       	pushq  $0x8d
    590b:	e9 10 f7 ff ff       	jmpq   5020 <.plt>

0000000000005910 <_ZNSt13runtime_errorC2EPKc@plt>:
    5910:	ff 25 72 db 01 00    	jmpq   *0x1db72(%rip)        # 23488 <_ZNSt13runtime_errorC2EPKc@GLIBCXX_3.4.21>
    5916:	68 8e 00 00 00       	pushq  $0x8e
    591b:	e9 00 f7 ff ff       	jmpq   5020 <.plt>

0000000000005920 <PyCapsule_GetName@plt>:
    5920:	ff 25 6a db 01 00    	jmpq   *0x1db6a(%rip)        # 23490 <PyCapsule_GetName>
    5926:	68 8f 00 00 00       	pushq  $0x8f
    592b:	e9 f0 f6 ff ff       	jmpq   5020 <.plt>

0000000000005930 <PyTuple_GetItem@plt>:
    5930:	ff 25 62 db 01 00    	jmpq   *0x1db62(%rip)        # 23498 <PyTuple_GetItem>
    5936:	68 90 00 00 00       	pushq  $0x90
    593b:	e9 e0 f6 ff ff       	jmpq   5020 <.plt>

0000000000005940 <_ZNSt7__cxx1112basic_stringIcSt11char_traitsIcESaIcEE6appendEPKc@plt>:
    5940:	ff 25 5a db 01 00    	jmpq   *0x1db5a(%rip)        # 234a0 <_ZNSt7__cxx1112basic_stringIcSt11char_traitsIcESaIcEE6appendEPKc@GLIBCXX_3.4.21>
    5946:	68 91 00 00 00       	pushq  $0x91
    594b:	e9 d0 f6 ff ff       	jmpq   5020 <.plt>

0000000000005950 <PyUnicode_AsUTF8String@plt>:
    5950:	ff 25 52 db 01 00    	jmpq   *0x1db52(%rip)        # 234a8 <PyUnicode_AsUTF8String>
    5956:	68 92 00 00 00       	pushq  $0x92
    595b:	e9 c0 f6 ff ff       	jmpq   5020 <.plt>

0000000000005960 <PyBytes_AsStringAndSize@plt>:
    5960:	ff 25 4a db 01 00    	jmpq   *0x1db4a(%rip)        # 234b0 <PyBytes_AsStringAndSize>
    5966:	68 93 00 00 00       	pushq  $0x93
    596b:	e9 b0 f6 ff ff       	jmpq   5020 <.plt>

Disassembly of section .plt.got:

0000000000005970 <vsnprintf@plt>:
    5970:	ff 25 c2 d5 01 00    	jmpq   *0x1d5c2(%rip)        # 22f38 <vsnprintf@GLIBC_2.2.5>
    5976:	66 90                	xchg   %ax,%ax

Disassembly of section .text:

0000000000005980 <_ZN8pybind1113pybind11_failEPKc>:
    5980:	41 54                	push   %r12
    5982:	49 89 fc             	mov    %rdi,%r12
    5985:	bf 10 00 00 00       	mov    $0x10,%edi
    598a:	55                   	push   %rbp
    598b:	50                   	push   %rax
    598c:	e8 7f f8 ff ff       	callq  5210 <__cxa_allocate_exception@plt>
    5991:	4c 89 e6             	mov    %r12,%rsi
    5994:	48 89 c7             	mov    %rax,%rdi
    5997:	48 89 c5             	mov    %rax,%rbp
    599a:	e8 e1 f7 ff ff       	callq  5180 <_ZNSt13runtime_errorC1EPKc@plt>
    599f:	48 8b 15 c2 d5 01 00 	mov    0x1d5c2(%rip),%rdx        # 22f68 <_ZNSt13runtime_errorD1Ev@GLIBCXX_3.4>
    59a6:	48 8b 35 4b d6 01 00 	mov    0x1d64b(%rip),%rsi        # 22ff8 <_ZTISt13runtime_error@GLIBCXX_3.4>
    59ad:	48 89 ef             	mov    %rbp,%rdi
    59b0:	e8 6b fe ff ff       	callq  5820 <__cxa_throw@plt>
    59b5:	49 89 c4             	mov    %rax,%r12
    59b8:	48 89 ef             	mov    %rbp,%rdi
    59bb:	e8 80 f9 ff ff       	callq  5340 <__cxa_free_exception@plt>
    59c0:	4c 89 e7             	mov    %r12,%rdi
    59c3:	e8 98 fe ff ff       	callq  5860 <_Unwind_Resume@plt>

00000000000059c8 <_ZN8pybind1113pybind11_failERKNSt7__cxx1112basic_stringIcSt11char_traitsIcESaIcEEE>:
    59c8:	41 54                	push   %r12
    59ca:	49 89 fc             	mov    %rdi,%r12
    59cd:	bf 10 00 00 00       	mov    $0x10,%edi
    59d2:	55                   	push   %rbp
    59d3:	50                   	push   %rax
    59d4:	e8 37 f8 ff ff       	callq  5210 <__cxa_allocate_exception@plt>
    59d9:	4c 89 e6             	mov    %r12,%rsi
    59dc:	48 89 c7             	mov    %rax,%rdi
    59df:	48 89 c5             	mov    %rax,%rbp
    59e2:	e8 a9 fd ff ff       	callq  5790 <_ZNSt13runtime_errorC1ERKNSt7__cxx1112basic_stringIcSt11char_traitsIcESaIcEEE@plt>
    59e7:	48 8b 15 7a d5 01 00 	mov    0x1d57a(%rip),%rdx        # 22f68 <_ZNSt13runtime_errorD1Ev@GLIBCXX_3.4>
    59ee:	48 8b 35 03 d6 01 00 	mov    0x1d603(%rip),%rsi        # 22ff8 <_ZTISt13runtime_error@GLIBCXX_3.4>
    59f5:	48 89 ef             	mov    %rbp,%rdi
    59f8:	e8 23 fe ff ff       	callq  5820 <__cxa_throw@plt>
    59fd:	49 89 c4             	mov    %rax,%r12
    5a00:	48 89 ef             	mov    %rbp,%rdi
    5a03:	e8 38 f9 ff ff       	callq  5340 <__cxa_free_exception@plt>
    5a08:	4c 89 e7             	mov    %r12,%rdi
    5a0b:	e8 50 fe ff ff       	callq  5860 <_Unwind_Resume@plt>

0000000000005a10 <_ZN8pybind11L7type_idIbEENSt7__cxx1112basic_stringIcSt11char_traitsIcESaIcEEEv>:
    5a10:	41 54                	push   %r12
    5a12:	49 89 fc             	mov    %rdi,%r12
    5a15:	55                   	push   %rbp
    5a16:	51                   	push   %rcx
    5a17:	48 8b 05 52 d5 01 00 	mov    0x1d552(%rip),%rax        # 22f70 <_ZTIb@CXXABI_1.3>
    5a1e:	48 8b 70 08          	mov    0x8(%rax),%rsi
    5a22:	80 3e 2a             	cmpb   $0x2a,(%rsi)
    5a25:	75 03                	jne    5a2a <_ZN8pybind11L7type_idIbEENSt7__cxx1112basic_stringIcSt11char_traitsIcESaIcEEEv+0x1a>
    5a27:	48 ff c6             	inc    %rsi
    5a2a:	4c 89 e7             	mov    %r12,%rdi
    5a2d:	e8 2e 04 00 00       	callq  5e60 <_ZNSt7__cxx1112basic_stringIcSt11char_traitsIcESaIcEEC2EPKcRKS3_.isra.0>
    5a32:	4c 89 e7             	mov    %r12,%rdi
    5a35:	e8 b6 16 00 00       	callq  70f0 <_ZN8pybind116detail13clean_type_idERNSt7__cxx1112basic_stringIcSt11char_traitsIcESaIcEEE>
    5a3a:	4c 89 e0             	mov    %r12,%rax
    5a3d:	5a                   	pop    %rdx
    5a3e:	5d                   	pop    %rbp
    5a3f:	41 5c                	pop    %r12
    5a41:	c3                   	retq   
    5a42:	48 89 c5             	mov    %rax,%rbp
    5a45:	49 8b 3c 24          	mov    (%r12),%rdi
    5a49:	49 83 c4 10          	add    $0x10,%r12
    5a4d:	4c 39 e7             	cmp    %r12,%rdi
    5a50:	74 05                	je     5a57 <_ZN8pybind11L7type_idIbEENSt7__cxx1112basic_stringIcSt11char_traitsIcESaIcEEEv+0x47>
    5a52:	e8 39 fa ff ff       	callq  5490 <_ZdlPv@plt>
    5a57:	48 89 ef             	mov    %rbp,%rdi
    5a5a:	e8 01 fe ff ff       	callq  5860 <_Unwind_Resume@plt>

0000000000005a5f <_ZN8pybind11L7type_idINSt7__cxx1112basic_stringIcSt11char_traitsIcESaIcEEEEES6_v>:
    5a5f:	41 54                	push   %r12
    5a61:	49 89 fc             	mov    %rdi,%r12
    5a64:	55                   	push   %rbp
    5a65:	51                   	push   %rcx
    5a66:	48 8b 35 23 d5 01 00 	mov    0x1d523(%rip),%rsi        # 22f90 <_ZTSNSt7__cxx1112basic_stringIcSt11char_traitsIcESaIcEEE@@Base+0x58d0>
    5a6d:	e8 ee 03 00 00       	callq  5e60 <_ZNSt7__cxx1112basic_stringIcSt11char_traitsIcESaIcEEC2EPKcRKS3_.isra.0>
    5a72:	4c 89 e7             	mov    %r12,%rdi
    5a75:	e8 76 16 00 00       	callq  70f0 <_ZN8pybind116detail13clean_type_idERNSt7__cxx1112basic_stringIcSt11char_traitsIcESaIcEEE>
    5a7a:	4c 89 e0             	mov    %r12,%rax
    5a7d:	5a                   	pop    %rdx
    5a7e:	5d                   	pop    %rbp
    5a7f:	41 5c                	pop    %r12
    5a81:	c3                   	retq   
    5a82:	48 89 c5             	mov    %rax,%rbp
    5a85:	49 8b 3c 24          	mov    (%r12),%rdi
    5a89:	49 83 c4 10          	add    $0x10,%r12
    5a8d:	4c 39 e7             	cmp    %r12,%rdi
    5a90:	74 05                	je     5a97 <_ZN8pybind11L7type_idINSt7__cxx1112basic_stringIcSt11char_traitsIcESaIcEEEEES6_v+0x38>
    5a92:	e8 f9 f9 ff ff       	callq  5490 <_ZdlPv@plt>
    5a97:	48 89 ef             	mov    %rbp,%rdi
    5a9a:	e8 c1 fd ff ff       	callq  5860 <_Unwind_Resume@plt>

0000000000005a9f <PyInit_mem_bus_cpp.cold>:
    5a9f:	48 8d 3d ea 66 01 00 	lea    0x166ea(%rip),%rdi        # 1c190 <_fini+0x10ac>
    5aa6:	e8 d5 fe ff ff       	callq  5980 <_ZN8pybind1113pybind11_failEPKc>
    5aab:	48 8b bc 24 88 00 00 	mov    0x88(%rsp),%rdi
    5ab2:	00 
    5ab3:	48 85 ff             	test   %rdi,%rdi
    5ab6:	74 0d                	je     5ac5 <PyInit_mem_bus_cpp.cold+0x26>
    5ab8:	48 83 2f 01          	subq   $0x1,(%rdi)
    5abc:	75 07                	jne    5ac5 <PyInit_mem_bus_cpp.cold+0x26>
    5abe:	48 8b 47 08          	mov    0x8(%rdi),%rax
    5ac2:	ff 50 30             	callq  *0x30(%rax)
    5ac5:	48 8b 7c 24 08       	mov    0x8(%rsp),%rdi
    5aca:	48 85 ff             	test   %rdi,%rdi
    5acd:	74 26                	je     5af5 <PyInit_mem_bus_cpp.cold+0x56>
    5acf:	48 83 2f 01          	subq   $0x1,(%rdi)
    5ad3:	75 20                	jne    5af5 <PyInit_mem_bus_cpp.cold+0x56>
    5ad5:	48 8b 47 08          	mov    0x8(%rdi),%rax
    5ad9:	ff 50 30             	callq  *0x30(%rax)
    5adc:	eb 17                	jmp    5af5 <PyInit_mem_bus_cpp.cold+0x56>
    5ade:	48 8b 7c 24 08       	mov    0x8(%rsp),%rdi
    5ae3:	48 85 ff             	test   %rdi,%rdi
    5ae6:	74 0d                	je     5af5 <PyInit_mem_bus_cpp.cold+0x56>
    5ae8:	48 83 2f 01          	subq   $0x1,(%rdi)
    5aec:	75 07                	jne    5af5 <PyInit_mem_bus_cpp.cold+0x56>
    5aee:	48 8b 47 08          	mov    0x8(%rdi),%rax
    5af2:	ff 50 30             	callq  *0x30(%rax)
    5af5:	4c 89 e7             	mov    %r12,%rdi
    5af8:	49 83 fd 01          	cmp    $0x1,%r13
    5afc:	74 1f                	je     5b1d <PyInit_mem_bus_cpp.cold+0x7e>
    5afe:	49 83 fd 02          	cmp    $0x2,%r13
    5b02:	74 46                	je     5b4a <PyInit_mem_bus_cpp.cold+0xab>
    5b04:	48 83 6d 00 01       	subq   $0x1,0x0(%rbp)
    5b09:	75 0a                	jne    5b15 <PyInit_mem_bus_cpp.cold+0x76>
    5b0b:	48 8b 45 08          	mov    0x8(%rbp),%rax
    5b0f:	48 89 ef             	mov    %rbp,%rdi
    5b12:	ff 50 30             	callq  *0x30(%rax)
    5b15:	4c 89 e7             	mov    %r12,%rdi
    5b18:	e8 43 fd ff ff       	callq  5860 <_Unwind_Resume@plt>
    5b1d:	e8 8e f6 ff ff       	callq  51b0 <__cxa_begin_catch@plt>
    5b22:	48 89 c7             	mov    %rax,%rdi
    5b25:	48 8b 00             	mov    (%rax),%rax
    5b28:	ff 50 10             	callq  *0x10(%rax)
    5b2b:	48 89 c6             	mov    %rax,%rsi
    5b2e:	48 8b 05 ab d4 01 00 	mov    0x1d4ab(%rip),%rax        # 22fe0 <PyExc_ImportError>
    5b35:	48 8b 38             	mov    (%rax),%rdi
    5b38:	e8 03 fa ff ff       	callq  5540 <PyErr_SetString@plt>
    5b3d:	e8 6e fc ff ff       	callq  57b0 <__cxa_end_catch@plt>
    5b42:	45 31 e4             	xor    %r12d,%r12d
    5b45:	e9 66 06 00 00       	jmpq   61b0 <PyInit_mem_bus_cpp+0x270>
    5b4a:	e8 61 f6 ff ff       	callq  51b0 <__cxa_begin_catch@plt>
    5b4f:	48 89 c7             	mov    %rax,%rdi
    5b52:	48 8b 00             	mov    (%rax),%rax
    5b55:	ff 50 10             	callq  *0x10(%rax)
    5b58:	48 89 c6             	mov    %rax,%rsi
    5b5b:	48 8b 05 7e d4 01 00 	mov    0x1d47e(%rip),%rax        # 22fe0 <PyExc_ImportError>
    5b62:	48 8b 38             	mov    (%rax),%rdi
    5b65:	e8 d6 f9 ff ff       	callq  5540 <PyErr_SetString@plt>
    5b6a:	e8 41 fc ff ff       	callq  57b0 <__cxa_end_catch@plt>
    5b6f:	45 31 e4             	xor    %r12d,%r12d
    5b72:	e9 39 06 00 00       	jmpq   61b0 <PyInit_mem_bus_cpp+0x270>
    5b77:	49 89 c4             	mov    %rax,%r12
    5b7a:	e8 31 fc ff ff       	callq  57b0 <__cxa_end_catch@plt>
    5b7f:	eb 83                	jmp    5b04 <PyInit_mem_bus_cpp.cold+0x65>
    5b81:	49 89 c4             	mov    %rax,%r12
    5b84:	e9 7b ff ff ff       	jmpq   5b04 <PyInit_mem_bus_cpp.cold+0x65>
    5b89:	49 89 c4             	mov    %rax,%r12
    5b8c:	e8 1f fc ff ff       	callq  57b0 <__cxa_end_catch@plt>
    5b91:	e9 6e ff ff ff       	jmpq   5b04 <PyInit_mem_bus_cpp.cold+0x65>
    5b96:	66 2e 0f 1f 84 00 00 	nopw   %cs:0x0(%rax,%rax,1)
    5b9d:	00 00 00 

0000000000005ba0 <deregister_tm_clones>:
    5ba0:	48 8d 3d f1 d9 01 00 	lea    0x1d9f1(%rip),%rdi        # 23598 <__TMC_END__>
    5ba7:	48 8d 05 ea d9 01 00 	lea    0x1d9ea(%rip),%rax        # 23598 <__TMC_END__>
    5bae:	48 39 f8             	cmp    %rdi,%rax
    5bb1:	74 15                	je     5bc8 <deregister_tm_clones+0x28>
    5bb3:	48 8b 05 16 d4 01 00 	mov    0x1d416(%rip),%rax        # 22fd0 <_ITM_deregisterTMCloneTable>
    5bba:	48 85 c0             	test   %rax,%rax
    5bbd:	74 09                	je     5bc8 <deregister_tm_clones+0x28>
    5bbf:	ff e0                	jmpq   *%rax
    5bc1:	0f 1f 80 00 00 00 00 	nopl   0x0(%rax)
    5bc8:	c3                   	retq   
    5bc9:	0f 1f 80 00 00 00 00 	nopl   0x0(%rax)

0000000000005bd0 <register_tm_clones>:
    5bd0:	48 8d 3d c1 d9 01 00 	lea    0x1d9c1(%rip),%rdi        # 23598 <__TMC_END__>
    5bd7:	48 8d 35 ba d9 01 00 	lea    0x1d9ba(%rip),%rsi        # 23598 <__TMC_END__>
    5bde:	48 29 fe             	sub    %rdi,%rsi
    5be1:	48 89 f0             	mov    %rsi,%rax
    5be4:	48 c1 ee 3f          	shr    $0x3f,%rsi
    5be8:	48 c1 f8 03          	sar    $0x3,%rax
    5bec:	48 01 c6             	add    %rax,%rsi
    5bef:	48 d1 fe             	sar    %rsi
    5bf2:	74 14                	je     5c08 <register_tm_clones+0x38>
    5bf4:	48 8b 05 f5 d3 01 00 	mov    0x1d3f5(%rip),%rax        # 22ff0 <_ITM_registerTMCloneTable>
    5bfb:	48 85 c0             	test   %rax,%rax
    5bfe:	74 08                	je     5c08 <register_tm_clones+0x38>
    5c00:	ff e0                	jmpq   *%rax
    5c02:	66 0f 1f 44 00 00    	nopw   0x0(%rax,%rax,1)
    5c08:	c3                   	retq   
    5c09:	0f 1f 80 00 00 00 00 	nopl   0x0(%rax)

0000000000005c10 <__do_global_dtors_aux>:
    5c10:	f3 0f 1e fa          	endbr64 
    5c14:	80 3d 85 d9 01 00 00 	cmpb   $0x0,0x1d985(%rip)        # 235a0 <completed.7392>
    5c1b:	75 33                	jne    5c50 <__do_global_dtors_aux+0x40>
    5c1d:	55                   	push   %rbp
    5c1e:	48 83 3d ea d2 01 00 	cmpq   $0x0,0x1d2ea(%rip)        # 22f10 <__cxa_finalize@GLIBC_2.2.5>
    5c25:	00 
    5c26:	48 89 e5             	mov    %rsp,%rbp
    5c29:	74 0d                	je     5c38 <__do_global_dtors_aux+0x28>
    5c2b:	48 8b 3d 8e d8 01 00 	mov    0x1d88e(%rip),%rdi        # 234c0 <__dso_handle>
    5c32:	ff 15 d8 d2 01 00    	callq  *0x1d2d8(%rip)        # 22f10 <__cxa_finalize@GLIBC_2.2.5>
    5c38:	e8 63 ff ff ff       	callq  5ba0 <deregister_tm_clones>
    5c3d:	c6 05 5c d9 01 00 01 	movb   $0x1,0x1d95c(%rip)        # 235a0 <completed.7392>
    5c44:	5d                   	pop    %rbp
    5c45:	c3                   	retq   
    5c46:	66 2e 0f 1f 84 00 00 	nopw   %cs:0x0(%rax,%rax,1)
    5c4d:	00 00 00 
    5c50:	c3                   	retq   
    5c51:	66 66 2e 0f 1f 84 00 	data16 nopw %cs:0x0(%rax,%rax,1)
    5c58:	00 00 00 00 
    5c5c:	0f 1f 40 00          	nopl   0x0(%rax)

0000000000005c60 <frame_dummy>:
    5c60:	f3 0f 1e fa          	endbr64 
    5c64:	e9 67 ff ff ff       	jmpq   5bd0 <register_tm_clones>
    5c69:	0f 1f 80 00 00 00 00 	nopl   0x0(%rax)

0000000000005c70 <_ZNK8pybind115tuple3endEv.isra.0.part.0>:
    5c70:	48 83 ec 08          	sub    $0x8,%rsp
    5c74:	48 8d 0d 05 64 01 00 	lea    0x16405(%rip),%rcx        # 1c080 <_fini+0xf9c>
    5c7b:	ba b9 04 00 00       	mov    $0x4b9,%edx
    5c80:	48 8d 35 39 64 01 00 	lea    0x16439(%rip),%rsi        # 1c0c0 <_fini+0xfdc>
    5c87:	48 8d 3d 25 65 01 00 	lea    0x16525(%rip),%rdi        # 1c1b3 <_fini+0x10cf>
    5c8e:	e8 5d f6 ff ff       	callq  52f0 <__assert_fail@plt>
    5c93:	90                   	nop
    5c94:	66 66 2e 0f 1f 84 00 	data16 nopw %cs:0x0(%rax,%rax,1)
    5c9b:	00 00 00 00 
    5c9f:	90                   	nop

0000000000005ca0 <_ZN8pybind1112cpp_function20make_function_recordEv.isra.0>:
    5ca0:	48 83 ec 08          	sub    $0x8,%rsp
    5ca4:	bf 80 00 00 00       	mov    $0x80,%edi
    5ca9:	e8 02 f8 ff ff       	callq  54b0 <_Znwm@plt>
    5cae:	66 0f ef c0          	pxor   %xmm0,%xmm0
    5cb2:	66 0f ef c9          	pxor   %xmm1,%xmm1
    5cb6:	66 81 60 58 00 80    	andw   $0x8000,0x58(%rax)
    5cbc:	48 c7 40 30 00 00 00 	movq   $0x0,0x30(%rax)
    5cc3:	00 
    5cc4:	48 c7 40 48 00 00 00 	movq   $0x0,0x48(%rax)
    5ccb:	00 
    5ccc:	48 c7 40 50 00 00 00 	movq   $0x0,0x50(%rax)
    5cd3:	00 
    5cd4:	0f 11 00             	movups %xmm0,(%rax)
    5cd7:	0f 11 40 10          	movups %xmm0,0x10(%rax)
    5cdb:	0f 11 40 20          	movups %xmm0,0x20(%rax)
    5cdf:	0f 11 48 38          	movups %xmm1,0x38(%rax)
    5ce3:	0f 11 40 60          	movups %xmm0,0x60(%rax)
    5ce7:	0f 11 40 70          	movups %xmm0,0x70(%rax)
    5ceb:	48 83 c4 08          	add    $0x8,%rsp
    5cef:	c3                   	retq   

0000000000005cf0 <_ZN9__gnu_cxx12__to_xstringINSt7__cxx1112basic_stringIcSt11char_traitsIcESaIcEEEcEET_PFiPT0_mPKS8_P13__va_list_tagEmSB_z.constprop.0>:
    5cf0:	55                   	push   %rbp
    5cf1:	48 89 d6             	mov    %rdx,%rsi
    5cf4:	48 89 ca             	mov    %rcx,%rdx
    5cf7:	48 89 e5             	mov    %rsp,%rbp
    5cfa:	41 56                	push   %r14
    5cfc:	41 55                	push   %r13
    5cfe:	41 54                	push   %r12
    5d00:	49 89 fc             	mov    %rdi,%r12
    5d03:	48 81 ec e8 00 00 00 	sub    $0xe8,%rsp
    5d0a:	4c 89 85 50 ff ff ff 	mov    %r8,-0xb0(%rbp)
    5d11:	4c 89 8d 58 ff ff ff 	mov    %r9,-0xa8(%rbp)
    5d18:	84 c0                	test   %al,%al
    5d1a:	74 26                	je     5d42 <_ZN9__gnu_cxx12__to_xstringINSt7__cxx1112basic_stringIcSt11char_traitsIcESaIcEEEcEET_PFiPT0_mPKS8_P13__va_list_tagEmSB_z.constprop.0+0x52>
    5d1c:	0f 29 85 60 ff ff ff 	movaps %xmm0,-0xa0(%rbp)
    5d23:	0f 29 8d 70 ff ff ff 	movaps %xmm1,-0x90(%rbp)
    5d2a:	0f 29 55 80          	movaps %xmm2,-0x80(%rbp)
    5d2e:	0f 29 5d 90          	movaps %xmm3,-0x70(%rbp)
    5d32:	0f 29 65 a0          	movaps %xmm4,-0x60(%rbp)
    5d36:	0f 29 6d b0          	movaps %xmm5,-0x50(%rbp)
    5d3a:	0f 29 75 c0          	movaps %xmm6,-0x40(%rbp)
    5d3e:	0f 29 7d d0          	movaps %xmm7,-0x30(%rbp)
    5d42:	64 48 8b 04 25 28 00 	mov    %fs:0x28,%rax
    5d49:	00 00 
    5d4b:	48 89 85 28 ff ff ff 	mov    %rax,-0xd8(%rbp)
    5d52:	31 c0                	xor    %eax,%eax
    5d54:	48 8d 46 17          	lea    0x17(%rsi),%rax
    5d58:	48 8d 8d 10 ff ff ff 	lea    -0xf0(%rbp),%rcx
    5d5f:	c7 85 10 ff ff ff 20 	movl   $0x20,-0xf0(%rbp)
    5d66:	00 00 00 
    5d69:	c7 85 14 ff ff ff 30 	movl   $0x30,-0xec(%rbp)
    5d70:	00 00 00 
    5d73:	48 83 e0 f0          	and    $0xfffffffffffffff0,%rax
    5d77:	48 29 c4             	sub    %rax,%rsp
    5d7a:	48 8d 45 10          	lea    0x10(%rbp),%rax
    5d7e:	4c 8d 74 24 0f       	lea    0xf(%rsp),%r14
    5d83:	48 89 85 18 ff ff ff 	mov    %rax,-0xe8(%rbp)
    5d8a:	48 8d 85 30 ff ff ff 	lea    -0xd0(%rbp),%rax
    5d91:	49 83 e6 f0          	and    $0xfffffffffffffff0,%r14
    5d95:	48 89 85 20 ff ff ff 	mov    %rax,-0xe0(%rbp)
    5d9c:	4c 89 f7             	mov    %r14,%rdi
    5d9f:	e8 cc fb ff ff       	callq  5970 <vsnprintf@plt>
    5da4:	49 8d 7c 24 10       	lea    0x10(%r12),%rdi
    5da9:	4c 63 e8             	movslq %eax,%r13
    5dac:	49 89 3c 24          	mov    %rdi,(%r12)
    5db0:	4c 89 ad 08 ff ff ff 	mov    %r13,-0xf8(%rbp)
    5db7:	49 83 fd 0f          	cmp    $0xf,%r13
    5dbb:	77 53                	ja     5e10 <_ZN9__gnu_cxx12__to_xstringINSt7__cxx1112basic_stringIcSt11char_traitsIcESaIcEEEcEET_PFiPT0_mPKS8_P13__va_list_tagEmSB_z.constprop.0+0x120>
    5dbd:	49 83 fd 01          	cmp    $0x1,%r13
    5dc1:	75 3d                	jne    5e00 <_ZN9__gnu_cxx12__to_xstringINSt7__cxx1112basic_stringIcSt11char_traitsIcESaIcEEEcEET_PFiPT0_mPKS8_P13__va_list_tagEmSB_z.constprop.0+0x110>
    5dc3:	41 0f b6 06          	movzbl (%r14),%eax
    5dc7:	41 88 44 24 10       	mov    %al,0x10(%r12)
    5dcc:	4d 89 6c 24 08       	mov    %r13,0x8(%r12)
    5dd1:	42 c6 04 2f 00       	movb   $0x0,(%rdi,%r13,1)
    5dd6:	48 8b 85 28 ff ff ff 	mov    -0xd8(%rbp),%rax
    5ddd:	64 48 33 04 25 28 00 	xor    %fs:0x28,%rax
    5de4:	00 00 
    5de6:	75 64                	jne    5e4c <_ZN9__gnu_cxx12__to_xstringINSt7__cxx1112basic_stringIcSt11char_traitsIcESaIcEEEcEET_PFiPT0_mPKS8_P13__va_list_tagEmSB_z.constprop.0+0x15c>
    5de8:	48 8d 65 e8          	lea    -0x18(%rbp),%rsp
    5dec:	4c 89 e0             	mov    %r12,%rax
    5def:	41 5c                	pop    %r12
    5df1:	41 5d                	pop    %r13
    5df3:	41 5e                	pop    %r14
    5df5:	5d                   	pop    %rbp
    5df6:	c3                   	retq   
    5df7:	66 0f 1f 84 00 00 00 	nopw   0x0(%rax,%rax,1)
    5dfe:	00 00 
    5e00:	4d 85 ed             	test   %r13,%r13
    5e03:	74 c7                	je     5dcc <_ZN9__gnu_cxx12__to_xstringINSt7__cxx1112basic_stringIcSt11char_traitsIcESaIcEEEcEET_PFiPT0_mPKS8_P13__va_list_tagEmSB_z.constprop.0+0xdc>
    5e05:	eb 2d                	jmp    5e34 <_ZN9__gnu_cxx12__to_xstringINSt7__cxx1112basic_stringIcSt11char_traitsIcESaIcEEEcEET_PFiPT0_mPKS8_P13__va_list_tagEmSB_z.constprop.0+0x144>
    5e07:	66 0f 1f 84 00 00 00 	nopw   0x0(%rax,%rax,1)
    5e0e:	00 00 
    5e10:	4c 89 e7             	mov    %r12,%rdi
    5e13:	48 8d b5 08 ff ff ff 	lea    -0xf8(%rbp),%rsi
    5e1a:	31 d2                	xor    %edx,%edx
    5e1c:	e8 5f fa ff ff       	callq  5880 <_ZNSt7__cxx1112basic_stringIcSt11char_traitsIcESaIcEE9_M_createERmm@plt>
    5e21:	49 89 04 24          	mov    %rax,(%r12)
    5e25:	48 89 c7             	mov    %rax,%rdi
    5e28:	48 8b 85 08 ff ff ff 	mov    -0xf8(%rbp),%rax
    5e2f:	49 89 44 24 10       	mov    %rax,0x10(%r12)
    5e34:	4c 89 ea             	mov    %r13,%rdx
    5e37:	4c 89 f6             	mov    %r14,%rsi
    5e3a:	e8 51 f5 ff ff       	callq  5390 <memcpy@plt>
    5e3f:	4c 8b ad 08 ff ff ff 	mov    -0xf8(%rbp),%r13
    5e46:	49 8b 3c 24          	mov    (%r12),%rdi
    5e4a:	eb 80                	jmp    5dcc <_ZN9__gnu_cxx12__to_xstringINSt7__cxx1112basic_stringIcSt11char_traitsIcESaIcEEEcEET_PFiPT0_mPKS8_P13__va_list_tagEmSB_z.constprop.0+0xdc>
    5e4c:	e8 cf f6 ff ff       	callq  5520 <__stack_chk_fail@plt>
    5e51:	90                   	nop
    5e52:	66 66 2e 0f 1f 84 00 	data16 nopw %cs:0x0(%rax,%rax,1)
    5e59:	00 00 00 00 
    5e5d:	0f 1f 00             	nopl   (%rax)

0000000000005e60 <_ZNSt7__cxx1112basic_stringIcSt11char_traitsIcESaIcEEC2EPKcRKS3_.isra.0>:
    5e60:	41 55                	push   %r13
    5e62:	4c 8d 6f 10          	lea    0x10(%rdi),%r13
    5e66:	41 54                	push   %r12
    5e68:	55                   	push   %rbp
    5e69:	53                   	push   %rbx
    5e6a:	48 83 ec 18          	sub    $0x18,%rsp
    5e6e:	64 48 8b 04 25 28 00 	mov    %fs:0x28,%rax
    5e75:	00 00 
    5e77:	48 89 44 24 08       	mov    %rax,0x8(%rsp)
    5e7c:	31 c0                	xor    %eax,%eax
    5e7e:	4c 89 2f             	mov    %r13,(%rdi)
    5e81:	48 85 f6             	test   %rsi,%rsi
    5e84:	0f 84 9e 00 00 00    	je     5f28 <_ZNSt7__cxx1112basic_stringIcSt11char_traitsIcESaIcEEC2EPKcRKS3_.isra.0+0xc8>
    5e8a:	48 89 fb             	mov    %rdi,%rbx
    5e8d:	48 89 f7             	mov    %rsi,%rdi
    5e90:	48 89 f5             	mov    %rsi,%rbp
    5e93:	e8 38 f3 ff ff       	callq  51d0 <strlen@plt>
    5e98:	48 89 04 24          	mov    %rax,(%rsp)
    5e9c:	49 89 c4             	mov    %rax,%r12
    5e9f:	48 83 f8 0f          	cmp    $0xf,%rax
    5ea3:	77 4b                	ja     5ef0 <_ZNSt7__cxx1112basic_stringIcSt11char_traitsIcESaIcEEC2EPKcRKS3_.isra.0+0x90>
    5ea5:	48 83 f8 01          	cmp    $0x1,%rax
    5ea9:	75 35                	jne    5ee0 <_ZNSt7__cxx1112basic_stringIcSt11char_traitsIcESaIcEEC2EPKcRKS3_.isra.0+0x80>
    5eab:	0f b6 55 00          	movzbl 0x0(%rbp),%edx
    5eaf:	88 53 10             	mov    %dl,0x10(%rbx)
    5eb2:	48 89 43 08          	mov    %rax,0x8(%rbx)
    5eb6:	41 c6 44 05 00 00    	movb   $0x0,0x0(%r13,%rax,1)
    5ebc:	48 8b 44 24 08       	mov    0x8(%rsp),%rax
    5ec1:	64 48 33 04 25 28 00 	xor    %fs:0x28,%rax
    5ec8:	00 00 
    5eca:	75 68                	jne    5f34 <_ZNSt7__cxx1112basic_stringIcSt11char_traitsIcESaIcEEC2EPKcRKS3_.isra.0+0xd4>
    5ecc:	48 83 c4 18          	add    $0x18,%rsp
    5ed0:	5b                   	pop    %rbx
    5ed1:	5d                   	pop    %rbp
    5ed2:	41 5c                	pop    %r12
    5ed4:	41 5d                	pop    %r13
    5ed6:	c3                   	retq   
    5ed7:	66 0f 1f 84 00 00 00 	nopw   0x0(%rax,%rax,1)
    5ede:	00 00 
    5ee0:	48 85 c0             	test   %rax,%rax
    5ee3:	74 cd                	je     5eb2 <_ZNSt7__cxx1112basic_stringIcSt11char_traitsIcESaIcEEC2EPKcRKS3_.isra.0+0x52>
    5ee5:	eb 24                	jmp    5f0b <_ZNSt7__cxx1112basic_stringIcSt11char_traitsIcESaIcEEC2EPKcRKS3_.isra.0+0xab>
    5ee7:	66 0f 1f 84 00 00 00 	nopw   0x0(%rax,%rax,1)
    5eee:	00 00 
    5ef0:	48 89 e6             	mov    %rsp,%rsi
    5ef3:	31 d2                	xor    %edx,%edx
    5ef5:	48 89 df             	mov    %rbx,%rdi
    5ef8:	e8 83 f9 ff ff       	callq  5880 <_ZNSt7__cxx1112basic_stringIcSt11char_traitsIcESaIcEE9_M_createERmm@plt>
    5efd:	48 89 03             	mov    %rax,(%rbx)
    5f00:	49 89 c5             	mov    %rax,%r13
    5f03:	48 8b 04 24          	mov    (%rsp),%rax
    5f07:	48 89 43 10          	mov    %rax,0x10(%rbx)
    5f0b:	4c 89 ef             	mov    %r13,%rdi
    5f0e:	4c 89 e2             	mov    %r12,%rdx
    5f11:	48 89 ee             	mov    %rbp,%rsi
    5f14:	e8 77 f4 ff ff       	callq  5390 <memcpy@plt>
    5f19:	48 8b 04 24          	mov    (%rsp),%rax
    5f1d:	4c 8b 2b             	mov    (%rbx),%r13
    5f20:	eb 90                	jmp    5eb2 <_ZNSt7__cxx1112basic_stringIcSt11char_traitsIcESaIcEEC2EPKcRKS3_.isra.0+0x52>
    5f22:	66 0f 1f 44 00 00    	nopw   0x0(%rax,%rax,1)
    5f28:	48 8d 3d c1 61 01 00 	lea    0x161c1(%rip),%rdi        # 1c0f0 <_fini+0x100c>
    5f2f:	e8 fc f3 ff ff       	callq  5330 <_ZSt19__throw_logic_errorPKc@plt>
    5f34:	e8 e7 f5 ff ff       	callq  5520 <__stack_chk_fail@plt>
    5f39:	0f 1f 80 00 00 00 00 	nopl   0x0(%rax)

0000000000005f40 <PyInit_mem_bus_cpp>:
    5f40:	41 56                	push   %r14
    5f42:	41 55                	push   %r13
    5f44:	41 54                	push   %r12
    5f46:	55                   	push   %rbp
    5f47:	48 81 ec b8 00 00 00 	sub    $0xb8,%rsp
    5f4e:	64 48 8b 04 25 28 00 	mov    %fs:0x28,%rax
    5f55:	00 00 
    5f57:	48 89 84 24 a8 00 00 	mov    %rax,0xa8(%rsp)
    5f5e:	00 
    5f5f:	31 c0                	xor    %eax,%eax
    5f61:	e8 9a f4 ff ff       	callq  5400 <Py_GetVersion@plt>
    5f66:	80 38 33             	cmpb   $0x33,(%rax)
    5f69:	48 89 c1             	mov    %rax,%rcx
    5f6c:	74 52                	je     5fc0 <PyInit_mem_bus_cpp+0x80>
    5f6e:	48 8b 05 6b d0 01 00 	mov    0x1d06b(%rip),%rax        # 22fe0 <PyExc_ImportError>
    5f75:	48 8d 15 4c 62 01 00 	lea    0x1624c(%rip),%rdx        # 1c1c8 <_fini+0x10e4>
    5f7c:	48 8d 35 9d 61 01 00 	lea    0x1619d(%rip),%rsi        # 1c120 <_fini+0x103c>
    5f83:	45 31 e4             	xor    %r12d,%r12d
    5f86:	48 8b 38             	mov    (%rax),%rdi
    5f89:	31 c0                	xor    %eax,%eax
    5f8b:	e8 80 f3 ff ff       	callq  5310 <PyErr_Format@plt>
    5f90:	48 8b 84 24 a8 00 00 	mov    0xa8(%rsp),%rax
    5f97:	00 
    5f98:	64 48 33 04 25 28 00 	xor    %fs:0x28,%rax
    5f9f:	00 00 
    5fa1:	0f 85 23 02 00 00    	jne    61ca <PyInit_mem_bus_cpp+0x28a>
    5fa7:	48 81 c4 b8 00 00 00 	add    $0xb8,%rsp
    5fae:	4c 89 e0             	mov    %r12,%rax
    5fb1:	5d                   	pop    %rbp
    5fb2:	41 5c                	pop    %r12
    5fb4:	41 5d                	pop    %r13
    5fb6:	41 5e                	pop    %r14
    5fb8:	c3                   	retq   
    5fb9:	0f 1f 80 00 00 00 00 	nopl   0x0(%rax)
    5fc0:	80 78 01 2e          	cmpb   $0x2e,0x1(%rax)
    5fc4:	75 a8                	jne    5f6e <PyInit_mem_bus_cpp+0x2e>
    5fc6:	80 78 02 37          	cmpb   $0x37,0x2(%rax)
    5fca:	75 a2                	jne    5f6e <PyInit_mem_bus_cpp+0x2e>
    5fcc:	0f b6 40 03          	movzbl 0x3(%rax),%eax
    5fd0:	83 e8 30             	sub    $0x30,%eax
    5fd3:	3c 09                	cmp    $0x9,%al
    5fd5:	76 97                	jbe    5f6e <PyInit_mem_bus_cpp+0x2e>
    5fd7:	bf 68 00 00 00       	mov    $0x68,%edi
    5fdc:	e8 cf f4 ff ff       	callq  54b0 <_Znwm@plt>
    5fe1:	be f5 03 00 00       	mov    $0x3f5,%esi
    5fe6:	48 8d 78 10          	lea    0x10(%rax),%rdi
    5fea:	48 c7 40 08 00 00 00 	movq   $0x0,0x8(%rax)
    5ff1:	00 
    5ff2:	49 89 c0             	mov    %rax,%r8
    5ff5:	48 83 e7 f8          	and    $0xfffffffffffffff8,%rdi
    5ff9:	48 c7 40 60 00 00 00 	movq   $0x0,0x60(%rax)
    6000:	00 
    6001:	29 f8                	sub    %edi,%eax
    6003:	8d 48 68             	lea    0x68(%rax),%ecx
    6006:	31 c0                	xor    %eax,%eax
    6008:	c1 e9 03             	shr    $0x3,%ecx
    600b:	f3 48 ab             	rep stos %rax,%es:(%rdi)
    600e:	48 8d 05 b7 61 01 00 	lea    0x161b7(%rip),%rax        # 1c1cc <_fini+0x10e8>
    6015:	49 c7 00 01 00 00 00 	movq   $0x1,(%r8)
    601c:	4c 89 c7             	mov    %r8,%rdi
    601f:	49 89 40 28          	mov    %rax,0x28(%r8)
    6023:	49 c7 40 38 ff ff ff 	movq   $0xffffffffffffffff,0x38(%r8)
    602a:	ff 
    602b:	e8 10 f7 ff ff       	callq  5740 <PyModule_Create2@plt>
    6030:	48 89 c5             	mov    %rax,%rbp
    6033:	48 85 c0             	test   %rax,%rax
    6036:	0f 84 63 fa ff ff    	je     5a9f <PyInit_mem_bus_cpp.cold>
    603c:	48 83 00 01          	addq   $0x1,(%rax)
    6040:	4c 8d 64 24 40       	lea    0x40(%rsp),%r12
    6045:	48 c7 44 24 08 00 00 	movq   $0x0,0x8(%rsp)
    604c:	00 00 
    604e:	4c 89 e7             	mov    %r12,%rdi
    6051:	e8 4a 12 00 00       	callq  72a0 <_ZN8pybind116detail11type_recordC1Ev>
    6056:	48 8d 05 7b 61 01 00 	lea    0x1617b(%rip),%rax        # 1c1d8 <_fini+0x10f4>
    605d:	4c 8d 74 24 08       	lea    0x8(%rsp),%r14
    6062:	66 0f 6f 05 c6 77 01 	movdqa 0x177c6(%rip),%xmm0        # 1d830 <_ZZN8pybind1112cpp_function10initializeIZNS_6detail23all_type_info_get_cacheEP11_typeobjectEUlNS_6handleEE_vJS5_EJEEEvOT_PFT0_DpT1_EDpRKT2_E9signature+0x30>
    6069:	00 
    606a:	80 8c 24 a0 00 00 00 	orb    $0x8,0xa0(%rsp)
    6071:	08 
    6072:	48 89 44 24 48       	mov    %rax,0x48(%rsp)
    6077:	48 8b 05 ca ce 01 00 	mov    0x1ceca(%rip),%rax        # 22f48 <_ZTI9MemBusCpp@@Base+0x390>
    607e:	48 8d 35 7b 48 01 00 	lea    0x1487b(%rip),%rsi        # 1a900 <_ZN8pybind116class_I9MemBusCppJEE13init_instanceEPNS_6detail8instanceEPKv>
    6085:	4c 89 f7             	mov    %r14,%rdi
    6088:	0f 11 44 24 58       	movups %xmm0,0x58(%rsp)
    608d:	66 48 0f 6e c6       	movq   %rsi,%xmm0
    6092:	4c 89 e6             	mov    %r12,%rsi
    6095:	48 89 44 24 50       	mov    %rax,0x50(%rsp)
    609a:	48 8d 05 8f 02 00 00 	lea    0x28f(%rip),%rax        # 6330 <_ZN8pybind116class_I9MemBusCppJEE7deallocERNS_6detail16value_and_holderE>
    60a1:	66 48 0f 6e c8       	movq   %rax,%xmm1
    60a6:	48 89 6c 24 40       	mov    %rbp,0x40(%rsp)
    60ab:	48 c7 44 24 68 08 00 	movq   $0x8,0x68(%rsp)
    60b2:	00 00 
    60b4:	66 0f 6c c1          	punpcklqdq %xmm1,%xmm0
    60b8:	0f 11 44 24 78       	movups %xmm0,0x78(%rsp)
    60bd:	e8 9e 06 01 00       	callq  16760 <_ZN8pybind116detail12generic_type10initializeERKNS0_11type_recordE>
    60c2:	48 8b bc 24 88 00 00 	mov    0x88(%rsp),%rdi
    60c9:	00 
    60ca:	48 85 ff             	test   %rdi,%rdi
    60cd:	74 0d                	je     60dc <PyInit_mem_bus_cpp+0x19c>
    60cf:	48 83 2f 01          	subq   $0x1,(%rdi)
    60d3:	75 07                	jne    60dc <PyInit_mem_bus_cpp+0x19c>
    60d5:	48 8b 47 08          	mov    0x8(%rdi),%rax
    60d9:	ff 50 30             	callq  *0x30(%rax)
    60dc:	4c 8d 6c 24 30       	lea    0x30(%rsp),%r13
    60e1:	4c 89 e1             	mov    %r12,%rcx
    60e4:	48 8d 35 65 6b 01 00 	lea    0x16b65(%rip),%rsi        # 1cc50 <_fini+0x1b6c>
    60eb:	4c 89 f7             	mov    %r14,%rdi
    60ee:	4c 89 ea             	mov    %r13,%rdx
    60f1:	e8 9a c0 00 00       	callq  12190 <_ZN8pybind116class_I9MemBusCppJEE3defIZNS_6detail8initimpl11constructorIJEE7executeIS2_JELi0EEEvRT_DpRKT0_EUlRNS4_16value_and_holderEE_JNS4_24is_new_style_constructorEEEERS2_PKcOS9_SE_>
    60f6:	48 8b 05 23 ce 01 00 	mov    0x1ce23(%rip),%rax        # 22f20 <_ZN9MemBusCpp5writeEii@@Base+0x1ccf0>
    60fd:	48 8d 54 24 10       	lea    0x10(%rsp),%rdx
    6102:	48 8d 35 d9 60 01 00 	lea    0x160d9(%rip),%rsi        # 1c1e2 <_fini+0x10fe>
    6109:	4c 89 f7             	mov    %r14,%rdi
    610c:	48 c7 44 24 18 00 00 	movq   $0x0,0x18(%rsp)
    6113:	00 00 
    6115:	48 89 44 24 10       	mov    %rax,0x10(%rsp)
    611a:	e8 91 c3 00 00       	callq  124b0 <_ZN8pybind116class_I9MemBusCppJEE3defIMS1_FviiEJEEERS2_PKcOT_DpRKT0_>
    611f:	48 89 c7             	mov    %rax,%rdi
    6122:	48 8b 05 57 ce 01 00 	mov    0x1ce57(%rip),%rax        # 22f80 <_ZN9MemBusCpp4readEi@@Base+0x1c2b0>
    6129:	48 8d 54 24 20       	lea    0x20(%rsp),%rdx
    612e:	48 8d 35 b3 60 01 00 	lea    0x160b3(%rip),%rsi        # 1c1e8 <_fini+0x1104>
    6135:	48 c7 44 24 28 00 00 	movq   $0x0,0x28(%rsp)
    613c:	00 00 
    613e:	48 89 44 24 20       	mov    %rax,0x20(%rsp)
    6143:	e8 98 c6 00 00       	callq  127e0 <_ZN8pybind116class_I9MemBusCppJEE3defIMS1_FhiEJEEERS2_PKcOT_DpRKT0_>
    6148:	48 89 c7             	mov    %rax,%rdi
    614b:	4c 89 ea             	mov    %r13,%rdx
    614e:	48 8d 05 6b 4b 00 00 	lea    0x4b6b(%rip),%rax        # acc0 <_ZN9MemBusCpp7write_nEiiN8pybind117array_tIhLi16EEE>
    6155:	48 c7 44 24 38 00 00 	movq   $0x0,0x38(%rsp)
    615c:	00 00 
    615e:	48 8d 35 88 60 01 00 	lea    0x16088(%rip),%rsi        # 1c1ed <_fini+0x1109>
    6165:	48 89 44 24 30       	mov    %rax,0x30(%rsp)
    616a:	e8 a1 c9 00 00       	callq  12b10 <_ZN8pybind116class_I9MemBusCppJEE3defIMS1_FviiNS_7array_tIhLi16EEEEJEEERS2_PKcOT_DpRKT0_>
    616f:	48 89 c7             	mov    %rax,%rdi
    6172:	4c 89 e2             	mov    %r12,%rdx
    6175:	48 8d 05 e4 4d 00 00 	lea    0x4de4(%rip),%rax        # af60 <_ZN9MemBusCpp6read_nEii>
    617c:	48 c7 44 24 48 00 00 	movq   $0x0,0x48(%rsp)
    6183:	00 00 
    6185:	48 8d 35 69 60 01 00 	lea    0x16069(%rip),%rsi        # 1c1f5 <_fini+0x1111>
    618c:	48 89 44 24 40       	mov    %rax,0x40(%rsp)
    6191:	e8 aa cc 00 00       	callq  12e40 <_ZN8pybind116class_I9MemBusCppJEE3defIMS1_FNS_7array_tIhLi16EEEiiEJEEERS2_PKcOT_DpRKT0_>
    6196:	48 8b 7c 24 08       	mov    0x8(%rsp),%rdi
    619b:	48 85 ff             	test   %rdi,%rdi
    619e:	74 0d                	je     61ad <PyInit_mem_bus_cpp+0x26d>
    61a0:	48 83 2f 01          	subq   $0x1,(%rdi)
    61a4:	75 07                	jne    61ad <PyInit_mem_bus_cpp+0x26d>
    61a6:	48 8b 47 08          	mov    0x8(%rdi),%rax
    61aa:	ff 50 30             	callq  *0x30(%rax)
    61ad:	49 89 ec             	mov    %rbp,%r12
    61b0:	48 83 6d 00 01       	subq   $0x1,0x0(%rbp)
    61b5:	0f 85 d5 fd ff ff    	jne    5f90 <PyInit_mem_bus_cpp+0x50>
    61bb:	48 8b 45 08          	mov    0x8(%rbp),%rax
    61bf:	48 89 ef             	mov    %rbp,%rdi
    61c2:	ff 50 30             	callq  *0x30(%rax)
    61c5:	e9 c6 fd ff ff       	jmpq   5f90 <PyInit_mem_bus_cpp+0x50>
    61ca:	e8 51 f3 ff ff       	callq  5520 <__stack_chk_fail@plt>
    61cf:	49 89 c4             	mov    %rax,%r12
    61d2:	49 89 d5             	mov    %rdx,%r13
    61d5:	e9 eb f8 ff ff       	jmpq   5ac5 <PyInit_mem_bus_cpp.cold+0x26>
    61da:	49 89 c4             	mov    %rax,%r12
    61dd:	49 89 d5             	mov    %rdx,%r13
    61e0:	e9 c6 f8 ff ff       	jmpq   5aab <PyInit_mem_bus_cpp.cold+0xc>
    61e5:	49 89 c4             	mov    %rax,%r12
    61e8:	49 89 d5             	mov    %rdx,%r13
    61eb:	e9 ee f8 ff ff       	jmpq   5ade <PyInit_mem_bus_cpp.cold+0x3f>

00000000000061f0 <pybind11_static_get>:
    61f0:	48 8b 05 61 cd 01 00 	mov    0x1cd61(%rip),%rax        # 22f58 <PyProperty_Type>
    61f7:	48 89 d6             	mov    %rdx,%rsi
    61fa:	48 8b 80 10 01 00 00 	mov    0x110(%rax),%rax
    6201:	ff e0                	jmpq   *%rax
    6203:	66 2e 0f 1f 84 00 00 	nopw   %cs:0x0(%rax,%rax,1)
    620a:	00 00 00 
    620d:	0f 1f 00             	nopl   (%rax)

0000000000006210 <pybind11_static_set>:
    6210:	48 8b 46 08          	mov    0x8(%rsi),%rax
    6214:	f6 80 ab 00 00 00 80 	testb  $0x80,0xab(%rax)
    621b:	48 0f 44 f0          	cmove  %rax,%rsi
    621f:	48 8b 05 32 cd 01 00 	mov    0x1cd32(%rip),%rax        # 22f58 <PyProperty_Type>
    6226:	ff a0 18 01 00 00    	jmpq   *0x118(%rax)
    622c:	0f 1f 40 00          	nopl   0x0(%rax)

0000000000006230 <_ZN9MemBusCpp5writeEii>:
    6230:	81 fe ff 1f 00 00    	cmp    $0x1fff,%esi
    6236:	7f 20                	jg     6258 <_ZN9MemBusCpp5writeEii+0x28>
    6238:	89 f0                	mov    %esi,%eax
    623a:	c1 f8 1f             	sar    $0x1f,%eax
    623d:	c1 e8 15             	shr    $0x15,%eax
    6240:	01 c6                	add    %eax,%esi
    6242:	81 e6 ff 07 00 00    	and    $0x7ff,%esi
    6248:	29 c6                	sub    %eax,%esi
    624a:	48 63 f6             	movslq %esi,%rsi
    624d:	48 8d 04 37          	lea    (%rdi,%rsi,1),%rax
    6251:	88 10                	mov    %dl,(%rax)
    6253:	c3                   	retq   
    6254:	0f 1f 40 00          	nopl   0x0(%rax)
    6258:	81 fe ff 3f 00 00    	cmp    $0x3fff,%esi
    625e:	7f 10                	jg     6270 <_ZN9MemBusCpp5writeEii+0x40>
    6260:	83 e6 07             	and    $0x7,%esi
    6263:	48 8d 84 37 00 20 00 	lea    0x2000(%rdi,%rsi,1),%rax
    626a:	00 
    626b:	88 10                	mov    %dl,(%rax)
    626d:	c3                   	retq   
    626e:	66 90                	xchg   %ax,%ax
    6270:	81 fe 1f 40 00 00    	cmp    $0x401f,%esi
    6276:	7e 20                	jle    6298 <_ZN9MemBusCpp5writeEii+0x68>
    6278:	81 fe ff 5f 00 00    	cmp    $0x5fff,%esi
    627e:	7f 30                	jg     62b0 <_ZN9MemBusCpp5writeEii+0x80>
    6280:	81 ee 20 40 00 00    	sub    $0x4020,%esi
    6286:	48 63 f6             	movslq %esi,%rsi
    6289:	48 8d 84 37 20 40 00 	lea    0x4020(%rdi,%rsi,1),%rax
    6290:	00 
    6291:	eb be                	jmp    6251 <_ZN9MemBusCpp5writeEii+0x21>
    6293:	0f 1f 44 00 00       	nopl   0x0(%rax,%rax,1)
    6298:	81 ee 00 20 00 00    	sub    $0x2000,%esi
    629e:	48 63 f6             	movslq %esi,%rsi
    62a1:	48 8d 84 37 00 20 00 	lea    0x2000(%rdi,%rsi,1),%rax
    62a8:	00 
    62a9:	88 10                	mov    %dl,(%rax)
    62ab:	c3                   	retq   
    62ac:	0f 1f 40 00          	nopl   0x0(%rax)
    62b0:	48 8d 87 00 00 01 00 	lea    0x10000(%rdi),%rax
    62b7:	81 fe ff ff 00 00    	cmp    $0xffff,%esi
    62bd:	7f 92                	jg     6251 <_ZN9MemBusCpp5writeEii+0x21>
    62bf:	80 bf 01 00 01 00 00 	cmpb   $0x0,0x10001(%rdi)
    62c6:	48 8d 8f 00 80 00 00 	lea    0x8000(%rdi),%rcx
    62cd:	74 29                	je     62f8 <_ZN9MemBusCpp5writeEii+0xc8>
    62cf:	81 ee 00 80 00 00    	sub    $0x8000,%esi
    62d5:	89 f7                	mov    %esi,%edi
    62d7:	c1 ff 1f             	sar    $0x1f,%edi
    62da:	c1 ef 12             	shr    $0x12,%edi
    62dd:	8d 04 3e             	lea    (%rsi,%rdi,1),%eax
    62e0:	25 ff 3f 00 00       	and    $0x3fff,%eax
    62e5:	29 f8                	sub    %edi,%eax
    62e7:	48 98                	cltq   
    62e9:	48 01 c8             	add    %rcx,%rax
    62ec:	e9 60 ff ff ff       	jmpq   6251 <_ZN9MemBusCpp5writeEii+0x21>
    62f1:	0f 1f 80 00 00 00 00 	nopl   0x0(%rax)
    62f8:	81 e6 ff 7f 00 00    	and    $0x7fff,%esi
    62fe:	48 8d 04 31          	lea    (%rcx,%rsi,1),%rax
    6302:	e9 4a ff ff ff       	jmpq   6251 <_ZN9MemBusCpp5writeEii+0x21>
    6307:	66 0f 1f 84 00 00 00 	nopw   0x0(%rax,%rax,1)
    630e:	00 00 

0000000000006310 <_ZNK8pybind1110cast_error9set_errorEv>:
    6310:	48 83 ec 08          	sub    $0x8,%rsp
    6314:	48 8b 07             	mov    (%rdi),%rax
    6317:	ff 50 10             	callq  *0x10(%rax)
    631a:	48 89 c6             	mov    %rax,%rsi
    631d:	48 8b 05 74 cc 01 00 	mov    0x1cc74(%rip),%rax        # 22f98 <PyExc_RuntimeError>
    6324:	48 8b 38             	mov    (%rax),%rdi
    6327:	48 83 c4 08          	add    $0x8,%rsp
    632b:	e9 10 f2 ff ff       	jmpq   5540 <PyErr_SetString@plt>

0000000000006330 <_ZN8pybind116class_I9MemBusCppJEE7deallocERNS_6detail16value_and_holderE>:
    6330:	53                   	push   %rbx
    6331:	48 8b 0f             	mov    (%rdi),%rcx
    6334:	48 89 fb             	mov    %rdi,%rbx
    6337:	0f b6 41 30          	movzbl 0x30(%rcx),%eax
    633b:	89 c2                	mov    %eax,%edx
    633d:	d0 ea                	shr    %dl
    633f:	83 e2 01             	and    $0x1,%edx
    6342:	74 4c                	je     6390 <_ZN8pybind116class_I9MemBusCppJEE7deallocERNS_6detail16value_and_holderE+0x60>
    6344:	c0 e8 02             	shr    $0x2,%al
    6347:	48 8b 73 18          	mov    0x18(%rbx),%rsi
    634b:	83 e0 01             	and    $0x1,%eax
    634e:	85 c0                	test   %eax,%eax
    6350:	74 55                	je     63a7 <_ZN8pybind116class_I9MemBusCppJEE7deallocERNS_6detail16value_and_holderE+0x77>
    6352:	48 8b 7e 08          	mov    0x8(%rsi),%rdi
    6356:	48 85 ff             	test   %rdi,%rdi
    6359:	74 16                	je     6371 <_ZN8pybind116class_I9MemBusCppJEE7deallocERNS_6detail16value_and_holderE+0x41>
    635b:	be 02 00 01 00       	mov    $0x10002,%esi
    6360:	e8 6b f1 ff ff       	callq  54d0 <_ZdlPvm@plt>
    6365:	48 8b 0b             	mov    (%rbx),%rcx
    6368:	0f b6 51 30          	movzbl 0x30(%rcx),%edx
    636c:	d0 ea                	shr    %dl
    636e:	83 e2 01             	and    $0x1,%edx
    6371:	84 d2                	test   %dl,%dl
    6373:	75 4b                	jne    63c0 <_ZN8pybind116class_I9MemBusCppJEE7deallocERNS_6detail16value_and_holderE+0x90>
    6375:	48 8b 43 08          	mov    0x8(%rbx),%rax
    6379:	48 03 41 18          	add    0x18(%rcx),%rax
    637d:	80 20 fe             	andb   $0xfe,(%rax)
    6380:	48 8b 43 18          	mov    0x18(%rbx),%rax
    6384:	48 c7 00 00 00 00 00 	movq   $0x0,(%rax)
    638b:	5b                   	pop    %rbx
    638c:	c3                   	retq   
    638d:	0f 1f 00             	nopl   (%rax)
    6390:	48 8b 71 18          	mov    0x18(%rcx),%rsi
    6394:	48 8b 47 08          	mov    0x8(%rdi),%rax
    6398:	0f b6 04 06          	movzbl (%rsi,%rax,1),%eax
    639c:	48 8b 73 18          	mov    0x18(%rbx),%rsi
    63a0:	83 e0 01             	and    $0x1,%eax
    63a3:	85 c0                	test   %eax,%eax
    63a5:	75 ab                	jne    6352 <_ZN8pybind116class_I9MemBusCppJEE7deallocERNS_6detail16value_and_holderE+0x22>
    63a7:	48 8b 3e             	mov    (%rsi),%rdi
    63aa:	e8 e1 f0 ff ff       	callq  5490 <_ZdlPv@plt>
    63af:	48 8b 43 18          	mov    0x18(%rbx),%rax
    63b3:	48 c7 00 00 00 00 00 	movq   $0x0,(%rax)
    63ba:	5b                   	pop    %rbx
    63bb:	c3                   	retq   
    63bc:	0f 1f 40 00          	nopl   0x0(%rax)
    63c0:	80 61 30 fb          	andb   $0xfb,0x30(%rcx)
    63c4:	48 8b 43 18          	mov    0x18(%rbx),%rax
    63c8:	48 c7 00 00 00 00 00 	movq   $0x0,(%rax)
    63cf:	5b                   	pop    %rbx
    63d0:	c3                   	retq   
    63d1:	66 2e 0f 1f 84 00 00 	nopw   %cs:0x0(%rax,%rax,1)
    63d8:	00 00 00 
    63db:	0f 1f 44 00 00       	nopl   0x0(%rax,%rax,1)

00000000000063e0 <_ZN8pybind1110cast_errorD1Ev>:
    63e0:	48 8d 05 19 c8 01 00 	lea    0x1c819(%rip),%rax        # 22c00 <_ZTVN8pybind1117builtin_exceptionE+0x10>
    63e7:	48 89 07             	mov    %rax,(%rdi)
    63ea:	e9 21 f1 ff ff       	jmpq   5510 <_ZNSt13runtime_errorD2Ev@plt>
    63ef:	90                   	nop

00000000000063f0 <_ZN8pybind1110cast_errorD0Ev>:
    63f0:	48 8d 05 09 c8 01 00 	lea    0x1c809(%rip),%rax        # 22c00 <_ZTVN8pybind1117builtin_exceptionE+0x10>
    63f7:	55                   	push   %rbp
    63f8:	48 89 fd             	mov    %rdi,%rbp
    63fb:	48 89 07             	mov    %rax,(%rdi)
    63fe:	e8 0d f1 ff ff       	callq  5510 <_ZNSt13runtime_errorD2Ev@plt>
    6403:	48 89 ef             	mov    %rbp,%rdi
    6406:	be 10 00 00 00       	mov    $0x10,%esi
    640b:	5d                   	pop    %rbp
    640c:	e9 bf f0 ff ff       	jmpq   54d0 <_ZdlPvm@plt>
    6411:	66 2e 0f 1f 84 00 00 	nopw   %cs:0x0(%rax,%rax,1)
    6418:	00 00 00 
    641b:	0f 1f 44 00 00       	nopl   0x0(%rax,%rax,1)

0000000000006420 <_ZN8pybind116detail19translate_exceptionENSt15__exception_ptr13exception_ptrE>:
    6420:	41 54                	push   %r12
    6422:	55                   	push   %rbp
    6423:	53                   	push   %rbx
    6424:	48 83 ec 10          	sub    $0x10,%rsp
    6428:	64 48 8b 04 25 28 00 	mov    %fs:0x28,%rax
    642f:	00 00 
    6431:	48 89 44 24 08       	mov    %rax,0x8(%rsp)
    6436:	31 c0                	xor    %eax,%eax
    6438:	48 83 3f 00          	cmpq   $0x0,(%rdi)
    643c:	75 19                	jne    6457 <_ZN8pybind116detail19translate_exceptionENSt15__exception_ptr13exception_ptrE+0x37>
    643e:	48 8b 44 24 08       	mov    0x8(%rsp),%rax
    6443:	64 48 33 04 25 28 00 	xor    %fs:0x28,%rax
    644a:	00 00 
    644c:	75 1f                	jne    646d <_ZN8pybind116detail19translate_exceptionENSt15__exception_ptr13exception_ptrE+0x4d>
    644e:	48 83 c4 10          	add    $0x10,%rsp
    6452:	5b                   	pop    %rbx
    6453:	5d                   	pop    %rbp
    6454:	41 5c                	pop    %r12
    6456:	c3                   	retq   
    6457:	49 89 e4             	mov    %rsp,%r12
    645a:	48 89 fe             	mov    %rdi,%rsi
    645d:	4c 89 e7             	mov    %r12,%rdi
    6460:	e8 eb ec ff ff       	callq  5150 <_ZNSt15__exception_ptr13exception_ptrC1ERKS0_@plt>
    6465:	4c 89 e7             	mov    %r12,%rdi
    6468:	e8 73 f0 ff ff       	callq  54e0 <_ZSt17rethrow_exceptionNSt15__exception_ptr13exception_ptrE@plt>
    646d:	e8 ae f0 ff ff       	callq  5520 <__stack_chk_fail@plt>
    6472:	48 89 c5             	mov    %rax,%rbp
    6475:	48 89 d3             	mov    %rdx,%rbx
    6478:	4c 89 e7             	mov    %r12,%rdi
    647b:	e8 60 f4 ff ff       	callq  58e0 <_ZNSt15__exception_ptr13exception_ptrD1Ev@plt>
    6480:	48 8d 43 ff          	lea    -0x1(%rbx),%rax
    6484:	48 83 f8 08          	cmp    $0x8,%rax
    6488:	77 13                	ja     649d <_ZN8pybind116detail19translate_exceptionENSt15__exception_ptr13exception_ptrE+0x7d>
    648a:	48 8d 15 8f 5b 01 00 	lea    0x15b8f(%rip),%rdx        # 1c020 <_fini+0xf3c>
    6491:	48 89 ef             	mov    %rbp,%rdi
    6494:	48 63 04 82          	movslq (%rdx,%rax,4),%rax
    6498:	48 01 d0             	add    %rdx,%rax
    649b:	ff e0                	jmpq   *%rax
    649d:	48 89 ef             	mov    %rbp,%rdi
    64a0:	e8 0b ed ff ff       	callq  51b0 <__cxa_begin_catch@plt>
    64a5:	48 8b 05 ec ca 01 00 	mov    0x1caec(%rip),%rax        # 22f98 <PyExc_RuntimeError>
    64ac:	48 8d 35 4d 5b 01 00 	lea    0x15b4d(%rip),%rsi        # 1c000 <_fini+0xf1c>
    64b3:	48 8b 38             	mov    (%rax),%rdi
    64b6:	e8 85 f0 ff ff       	callq  5540 <PyErr_SetString@plt>
    64bb:	e8 f0 f2 ff ff       	callq  57b0 <__cxa_end_catch@plt>
    64c0:	e9 79 ff ff ff       	jmpq   643e <_ZN8pybind116detail19translate_exceptionENSt15__exception_ptr13exception_ptrE+0x1e>
    64c5:	48 89 c5             	mov    %rax,%rbp
    64c8:	eb 22                	jmp    64ec <_ZN8pybind116detail19translate_exceptionENSt15__exception_ptr13exception_ptrE+0xcc>
    64ca:	e8 e1 ec ff ff       	callq  51b0 <__cxa_begin_catch@plt>
    64cf:	48 89 c7             	mov    %rax,%rdi
    64d2:	48 8b 00             	mov    (%rax),%rax
    64d5:	ff 50 10             	callq  *0x10(%rax)
    64d8:	48 89 c6             	mov    %rax,%rsi
    64db:	48 8b 05 06 ca 01 00 	mov    0x1ca06(%rip),%rax        # 22ee8 <PyExc_ValueError>
    64e2:	48 8b 38             	mov    (%rax),%rdi
    64e5:	e8 56 f0 ff ff       	callq  5540 <PyErr_SetString@plt>
    64ea:	eb cf                	jmp    64bb <_ZN8pybind116detail19translate_exceptionENSt15__exception_ptr13exception_ptrE+0x9b>
    64ec:	e8 bf f2 ff ff       	callq  57b0 <__cxa_end_catch@plt>
    64f1:	48 89 ef             	mov    %rbp,%rdi
    64f4:	e8 67 f3 ff ff       	callq  5860 <_Unwind_Resume@plt>
    64f9:	48 89 c5             	mov    %rax,%rbp
    64fc:	e9 4e 01 00 00       	jmpq   664f <_ZN8pybind116detail19translate_exceptionENSt15__exception_ptr13exception_ptrE+0x22f>
    6501:	e8 aa ec ff ff       	callq  51b0 <__cxa_begin_catch@plt>
    6506:	48 89 c7             	mov    %rax,%rdi
    6509:	48 8b 00             	mov    (%rax),%rax
    650c:	ff 50 10             	callq  *0x10(%rax)
    650f:	48 89 c6             	mov    %rax,%rsi
    6512:	48 8b 05 df c9 01 00 	mov    0x1c9df(%rip),%rax        # 22ef8 <PyExc_IndexError>
    6519:	48 8b 38             	mov    (%rax),%rdi
    651c:	e8 1f f0 ff ff       	callq  5540 <PyErr_SetString@plt>
    6521:	eb 98                	jmp    64bb <_ZN8pybind116detail19translate_exceptionENSt15__exception_ptr13exception_ptrE+0x9b>
    6523:	e8 88 ec ff ff       	callq  51b0 <__cxa_begin_catch@plt>
    6528:	48 89 c7             	mov    %rax,%rdi
    652b:	48 8b 00             	mov    (%rax),%rax
    652e:	ff 50 10             	callq  *0x10(%rax)
    6531:	48 89 c6             	mov    %rax,%rsi
    6534:	48 8b 05 ed c9 01 00 	mov    0x1c9ed(%rip),%rax        # 22f28 <PyExc_MemoryError>
    653b:	48 8b 38             	mov    (%rax),%rdi
    653e:	e8 fd ef ff ff       	callq  5540 <PyErr_SetString@plt>
    6543:	e9 73 ff ff ff       	jmpq   64bb <_ZN8pybind116detail19translate_exceptionENSt15__exception_ptr13exception_ptrE+0x9b>
    6548:	e8 63 ec ff ff       	callq  51b0 <__cxa_begin_catch@plt>
    654d:	48 89 c7             	mov    %rax,%rdi
    6550:	48 8b 00             	mov    (%rax),%rax
    6553:	ff 50 10             	callq  *0x10(%rax)
    6556:	48 89 c6             	mov    %rax,%rsi
    6559:	48 8b 05 88 c9 01 00 	mov    0x1c988(%rip),%rax        # 22ee8 <PyExc_ValueError>
    6560:	48 8b 38             	mov    (%rax),%rdi
    6563:	e8 d8 ef ff ff       	callq  5540 <PyErr_SetString@plt>
    6568:	e9 4e ff ff ff       	jmpq   64bb <_ZN8pybind116detail19translate_exceptionENSt15__exception_ptr13exception_ptrE+0x9b>
    656d:	e8 3e ec ff ff       	callq  51b0 <__cxa_begin_catch@plt>
    6572:	66 0f ef c0          	pxor   %xmm0,%xmm0
    6576:	48 8b 50 20          	mov    0x20(%rax),%rdx
    657a:	48 8b 70 18          	mov    0x18(%rax),%rsi
    657e:	48 c7 40 20 00 00 00 	movq   $0x0,0x20(%rax)
    6585:	00 
    6586:	48 8b 78 10          	mov    0x10(%rax),%rdi
    658a:	0f 11 40 10          	movups %xmm0,0x10(%rax)
    658e:	e8 fd eb ff ff       	callq  5190 <PyErr_Restore@plt>
    6593:	e9 23 ff ff ff       	jmpq   64bb <_ZN8pybind116detail19translate_exceptionENSt15__exception_ptr13exception_ptrE+0x9b>
    6598:	e8 13 ec ff ff       	callq  51b0 <__cxa_begin_catch@plt>
    659d:	48 89 c7             	mov    %rax,%rdi
    65a0:	48 8b 00             	mov    (%rax),%rax
    65a3:	ff 50 10             	callq  *0x10(%rax)
    65a6:	48 89 c6             	mov    %rax,%rsi
    65a9:	48 8b 05 38 c9 01 00 	mov    0x1c938(%rip),%rax        # 22ee8 <PyExc_ValueError>
    65b0:	48 8b 38             	mov    (%rax),%rdi
    65b3:	e8 88 ef ff ff       	callq  5540 <PyErr_SetString@plt>
    65b8:	e9 fe fe ff ff       	jmpq   64bb <_ZN8pybind116detail19translate_exceptionENSt15__exception_ptr13exception_ptrE+0x9b>
    65bd:	e8 ee eb ff ff       	callq  51b0 <__cxa_begin_catch@plt>
    65c2:	48 89 c7             	mov    %rax,%rdi
    65c5:	48 8b 00             	mov    (%rax),%rax
    65c8:	ff 50 18             	callq  *0x18(%rax)
    65cb:	e9 eb fe ff ff       	jmpq   64bb <_ZN8pybind116detail19translate_exceptionENSt15__exception_ptr13exception_ptrE+0x9b>
    65d0:	e8 db eb ff ff       	callq  51b0 <__cxa_begin_catch@plt>
    65d5:	48 89 c7             	mov    %rax,%rdi
    65d8:	48 8b 00             	mov    (%rax),%rax
    65db:	ff 50 10             	callq  *0x10(%rax)
    65de:	48 89 c6             	mov    %rax,%rsi
    65e1:	48 8b 05 00 c9 01 00 	mov    0x1c900(%rip),%rax        # 22ee8 <PyExc_ValueError>
    65e8:	48 8b 38             	mov    (%rax),%rdi
    65eb:	e8 50 ef ff ff       	callq  5540 <PyErr_SetString@plt>
    65f0:	e9 c6 fe ff ff       	jmpq   64bb <_ZN8pybind116detail19translate_exceptionENSt15__exception_ptr13exception_ptrE+0x9b>
    65f5:	e8 b6 eb ff ff       	callq  51b0 <__cxa_begin_catch@plt>
    65fa:	48 89 c7             	mov    %rax,%rdi
    65fd:	48 8b 00             	mov    (%rax),%rax
    6600:	ff 50 10             	callq  *0x10(%rax)
    6603:	48 89 c6             	mov    %rax,%rsi
    6606:	48 8b 05 8b c9 01 00 	mov    0x1c98b(%rip),%rax        # 22f98 <PyExc_RuntimeError>
    660d:	48 8b 38             	mov    (%rax),%rdi
    6610:	e8 2b ef ff ff       	callq  5540 <PyErr_SetString@plt>
    6615:	e9 a1 fe ff ff       	jmpq   64bb <_ZN8pybind116detail19translate_exceptionENSt15__exception_ptr13exception_ptrE+0x9b>
    661a:	e9 da fe ff ff       	jmpq   64f9 <_ZN8pybind116detail19translate_exceptionENSt15__exception_ptr13exception_ptrE+0xd9>
    661f:	e9 d5 fe ff ff       	jmpq   64f9 <_ZN8pybind116detail19translate_exceptionENSt15__exception_ptr13exception_ptrE+0xd9>
    6624:	e9 d0 fe ff ff       	jmpq   64f9 <_ZN8pybind116detail19translate_exceptionENSt15__exception_ptr13exception_ptrE+0xd9>
    6629:	48 89 c5             	mov    %rax,%rbp
    662c:	eb 05                	jmp    6633 <_ZN8pybind116detail19translate_exceptionENSt15__exception_ptr13exception_ptrE+0x213>
    662e:	e9 c6 fe ff ff       	jmpq   64f9 <_ZN8pybind116detail19translate_exceptionENSt15__exception_ptr13exception_ptrE+0xd9>
    6633:	e8 78 f1 ff ff       	callq  57b0 <__cxa_end_catch@plt>
    6638:	48 89 ef             	mov    %rbp,%rdi
    663b:	e8 20 f2 ff ff       	callq  5860 <_Unwind_Resume@plt>
    6640:	e9 b4 fe ff ff       	jmpq   64f9 <_ZN8pybind116detail19translate_exceptionENSt15__exception_ptr13exception_ptrE+0xd9>
    6645:	e9 af fe ff ff       	jmpq   64f9 <_ZN8pybind116detail19translate_exceptionENSt15__exception_ptr13exception_ptrE+0xd9>
    664a:	e9 aa fe ff ff       	jmpq   64f9 <_ZN8pybind116detail19translate_exceptionENSt15__exception_ptr13exception_ptrE+0xd9>
    664f:	e8 5c f1 ff ff       	callq  57b0 <__cxa_end_catch@plt>
    6654:	48 89 ef             	mov    %rbp,%rdi
    6657:	e8 04 f2 ff ff       	callq  5860 <_Unwind_Resume@plt>
    665c:	0f 1f 40 00          	nopl   0x0(%rax)

0000000000006660 <_ZZN8pybind1112cpp_function18initialize_genericEPNS_6detail15function_recordEPKcPKPKSt9type_infomENUlPvE_4_FUNESB_>:
    6660:	48 85 ff             	test   %rdi,%rdi
    6663:	0f 84 e7 00 00 00    	je     6750 <_ZZN8pybind1112cpp_function18initialize_genericEPNS_6detail15function_recordEPKcPKPKSt9type_infomENUlPvE_4_FUNESB_+0xf0>
    6669:	41 55                	push   %r13
    666b:	41 54                	push   %r12
    666d:	55                   	push   %rbp
    666e:	48 89 fd             	mov    %rdi,%rbp
    6671:	53                   	push   %rbx
    6672:	48 83 ec 08          	sub    $0x8,%rsp
    6676:	66 2e 0f 1f 84 00 00 	nopw   %cs:0x0(%rax,%rax,1)
    667d:	00 00 00 
    6680:	48 8b 45 50          	mov    0x50(%rbp),%rax
    6684:	4c 8b 65 78          	mov    0x78(%rbp),%r12
    6688:	48 85 c0             	test   %rax,%rax
    668b:	74 05                	je     6692 <_ZZN8pybind1112cpp_function18initialize_genericEPNS_6detail15function_recordEPKcPKPKSt9type_infomENUlPvE_4_FUNESB_+0x32>
    668d:	48 89 ef             	mov    %rbp,%rdi
    6690:	ff d0                	callq  *%rax
    6692:	48 8b 7d 00          	mov    0x0(%rbp),%rdi
    6696:	e8 e5 ee ff ff       	callq  5580 <free@plt>
    669b:	48 8b 7d 08          	mov    0x8(%rbp),%rdi
    669f:	e8 dc ee ff ff       	callq  5580 <free@plt>
    66a4:	48 8b 7d 10          	mov    0x10(%rbp),%rdi
    66a8:	e8 d3 ee ff ff       	callq  5580 <free@plt>
    66ad:	48 8b 5d 18          	mov    0x18(%rbp),%rbx
    66b1:	4c 8b 6d 20          	mov    0x20(%rbp),%r13
    66b5:	4c 39 eb             	cmp    %r13,%rbx
    66b8:	74 36                	je     66f0 <_ZZN8pybind1112cpp_function18initialize_genericEPNS_6detail15function_recordEPKcPKPKSt9type_infomENUlPvE_4_FUNESB_+0x90>
    66ba:	66 0f 1f 44 00 00    	nopw   0x0(%rax,%rax,1)
    66c0:	48 8b 3b             	mov    (%rbx),%rdi
    66c3:	e8 b8 ee ff ff       	callq  5580 <free@plt>
    66c8:	48 8b 7b 08          	mov    0x8(%rbx),%rdi
    66cc:	e8 af ee ff ff       	callq  5580 <free@plt>
    66d1:	48 8b 7b 10          	mov    0x10(%rbx),%rdi
    66d5:	48 85 ff             	test   %rdi,%rdi
    66d8:	74 0d                	je     66e7 <_ZZN8pybind1112cpp_function18initialize_genericEPNS_6detail15function_recordEPKcPKPKSt9type_infomENUlPvE_4_FUNESB_+0x87>
    66da:	48 83 2f 01          	subq   $0x1,(%rdi)
    66de:	75 07                	jne    66e7 <_ZZN8pybind1112cpp_function18initialize_genericEPNS_6detail15function_recordEPKcPKPKSt9type_infomENUlPvE_4_FUNESB_+0x87>
    66e0:	48 8b 47 08          	mov    0x8(%rdi),%rax
    66e4:	ff 50 30             	callq  *0x30(%rax)
    66e7:	48 83 c3 20          	add    $0x20,%rbx
    66eb:	49 39 dd             	cmp    %rbx,%r13
    66ee:	75 d0                	jne    66c0 <_ZZN8pybind1112cpp_function18initialize_genericEPNS_6detail15function_recordEPKcPKPKSt9type_infomENUlPvE_4_FUNESB_+0x60>
    66f0:	48 8b 45 60          	mov    0x60(%rbp),%rax
    66f4:	48 85 c0             	test   %rax,%rax
    66f7:	74 1c                	je     6715 <_ZZN8pybind1112cpp_function18initialize_genericEPNS_6detail15function_recordEPKcPKPKSt9type_infomENUlPvE_4_FUNESB_+0xb5>
    66f9:	48 8b 78 18          	mov    0x18(%rax),%rdi
    66fd:	e8 7e ee ff ff       	callq  5580 <free@plt>
    6702:	48 8b 7d 60          	mov    0x60(%rbp),%rdi
    6706:	48 85 ff             	test   %rdi,%rdi
    6709:	74 0a                	je     6715 <_ZZN8pybind1112cpp_function18initialize_genericEPNS_6detail15function_recordEPKcPKPKSt9type_infomENUlPvE_4_FUNESB_+0xb5>
    670b:	be 20 00 00 00       	mov    $0x20,%esi
    6710:	e8 bb ed ff ff       	callq  54d0 <_ZdlPvm@plt>
    6715:	48 8b 7d 18          	mov    0x18(%rbp),%rdi
    6719:	48 85 ff             	test   %rdi,%rdi
    671c:	74 05                	je     6723 <_ZZN8pybind1112cpp_function18initialize_genericEPNS_6detail15function_recordEPKcPKPKSt9type_infomENUlPvE_4_FUNESB_+0xc3>
    671e:	e8 6d ed ff ff       	callq  5490 <_ZdlPv@plt>
    6723:	be 80 00 00 00       	mov    $0x80,%esi
    6728:	48 89 ef             	mov    %rbp,%rdi
    672b:	e8 a0 ed ff ff       	callq  54d0 <_ZdlPvm@plt>
    6730:	4d 85 e4             	test   %r12,%r12
    6733:	74 0b                	je     6740 <_ZZN8pybind1112cpp_function18initialize_genericEPNS_6detail15function_recordEPKcPKPKSt9type_infomENUlPvE_4_FUNESB_+0xe0>
    6735:	4c 89 e5             	mov    %r12,%rbp
    6738:	e9 43 ff ff ff       	jmpq   6680 <_ZZN8pybind1112cpp_function18initialize_genericEPNS_6detail15function_recordEPKcPKPKSt9type_infomENUlPvE_4_FUNESB_+0x20>
    673d:	0f 1f 00             	nopl   (%rax)
    6740:	48 83 c4 08          	add    $0x8,%rsp
    6744:	5b                   	pop    %rbx
    6745:	5d                   	pop    %rbp
    6746:	41 5c                	pop    %r12
    6748:	41 5d                	pop    %r13
    674a:	c3                   	retq   
    674b:	0f 1f 44 00 00       	nopl   0x0(%rax,%rax,1)
    6750:	c3                   	retq   
    6751:	66 2e 0f 1f 84 00 00 	nopw   %cs:0x0(%rax,%rax,1)
    6758:	00 00 00 
    675b:	0f 1f 44 00 00       	nopl   0x0(%rax,%rax,1)

0000000000006760 <pybind11_meta_getattro>:
    6760:	41 54                	push   %r12
    6762:	49 89 f4             	mov    %rsi,%r12
    6765:	55                   	push   %rbp
    6766:	48 89 fd             	mov    %rdi,%rbp
    6769:	48 83 ec 08          	sub    $0x8,%rsp
    676d:	e8 be f0 ff ff       	callq  5830 <_PyType_Lookup@plt>
    6772:	48 85 c0             	test   %rax,%rax
    6775:	74 0d                	je     6784 <pybind11_meta_getattro+0x24>
    6777:	48 8b 15 62 c7 01 00 	mov    0x1c762(%rip),%rdx        # 22ee0 <PyInstanceMethod_Type>
    677e:	48 39 50 08          	cmp    %rdx,0x8(%rax)
    6782:	74 24                	je     67a8 <pybind11_meta_getattro+0x48>
    6784:	48 8b 05 a5 c7 01 00 	mov    0x1c7a5(%rip),%rax        # 22f30 <PyType_Type>
    678b:	4c 89 e6             	mov    %r12,%rsi
    678e:	48 89 ef             	mov    %rbp,%rdi
    6791:	48 8b 80 90 00 00 00 	mov    0x90(%rax),%rax
    6798:	48 83 c4 08          	add    $0x8,%rsp
    679c:	5d                   	pop    %rbp
    679d:	41 5c                	pop    %r12
    679f:	ff e0                	jmpq   *%rax
    67a1:	0f 1f 80 00 00 00 00 	nopl   0x0(%rax)
    67a8:	48 83 00 01          	addq   $0x1,(%rax)
    67ac:	48 83 c4 08          	add    $0x8,%rsp
    67b0:	5d                   	pop    %rbp
    67b1:	41 5c                	pop    %r12
    67b3:	c3                   	retq   
    67b4:	66 2e 0f 1f 84 00 00 	nopw   %cs:0x0(%rax,%rax,1)
    67bb:	00 00 00 
    67be:	66 90                	xchg   %ax,%ax

00000000000067c0 <pybind11_clear>:
    67c0:	48 83 ec 08          	sub    $0x8,%rsp
    67c4:	e8 07 ec ff ff       	callq  53d0 <_PyObject_GetDictPtr@plt>
    67c9:	48 8b 38             	mov    (%rax),%rdi
    67cc:	48 85 ff             	test   %rdi,%rdi
    67cf:	74 0d                	je     67de <pybind11_clear+0x1e>
    67d1:	48 c7 00 00 00 00 00 	movq   $0x0,(%rax)
    67d8:	48 83 2f 01          	subq   $0x1,(%rdi)
    67dc:	74 0a                	je     67e8 <pybind11_clear+0x28>
    67de:	31 c0                	xor    %eax,%eax
    67e0:	48 83 c4 08          	add    $0x8,%rsp
    67e4:	c3                   	retq   
    67e5:	0f 1f 00             	nopl   (%rax)
    67e8:	48 8b 47 08          	mov    0x8(%rdi),%rax
    67ec:	ff 50 30             	callq  *0x30(%rax)
    67ef:	31 c0                	xor    %eax,%eax
    67f1:	48 83 c4 08          	add    $0x8,%rsp
    67f5:	c3                   	retq   
    67f6:	66 2e 0f 1f 84 00 00 	nopw   %cs:0x0(%rax,%rax,1)
    67fd:	00 00 00 

0000000000006800 <pybind11_traverse>:
    6800:	55                   	push   %rbp
    6801:	48 89 d5             	mov    %rdx,%rbp
    6804:	53                   	push   %rbx
    6805:	48 89 f3             	mov    %rsi,%rbx
    6808:	48 83 ec 08          	sub    $0x8,%rsp
    680c:	e8 bf eb ff ff       	callq  53d0 <_PyObject_GetDictPtr@plt>
    6811:	48 8b 38             	mov    (%rax),%rdi
    6814:	48 85 ff             	test   %rdi,%rdi
    6817:	74 17                	je     6830 <pybind11_traverse+0x30>
    6819:	48 83 c4 08          	add    $0x8,%rsp
    681d:	48 89 ee             	mov    %rbp,%rsi
    6820:	48 89 d8             	mov    %rbx,%rax
    6823:	5b                   	pop    %rbx
    6824:	5d                   	pop    %rbp
    6825:	ff e0                	jmpq   *%rax
    6827:	66 0f 1f 84 00 00 00 	nopw   0x0(%rax,%rax,1)
    682e:	00 00 
    6830:	48 83 c4 08          	add    $0x8,%rsp
    6834:	31 c0                	xor    %eax,%eax
    6836:	5b                   	pop    %rbx
    6837:	5d                   	pop    %rbp
    6838:	c3                   	retq   
    6839:	0f 1f 80 00 00 00 00 	nopl   0x0(%rax)

0000000000006840 <pybind11_set_dict>:
    6840:	55                   	push   %rbp
    6841:	53                   	push   %rbx
    6842:	48 83 ec 08          	sub    $0x8,%rsp
    6846:	48 8b 46 08          	mov    0x8(%rsi),%rax
    684a:	f6 80 ab 00 00 00 20 	testb  $0x20,0xab(%rax)
    6851:	74 45                	je     6898 <pybind11_set_dict+0x58>
    6853:	48 89 f3             	mov    %rsi,%rbx
    6856:	e8 75 eb ff ff       	callq  53d0 <_PyObject_GetDictPtr@plt>
    685b:	48 83 03 01          	addq   $0x1,(%rbx)
    685f:	48 8b 38             	mov    (%rax),%rdi
    6862:	48 89 c5             	mov    %rax,%rbp
    6865:	48 85 ff             	test   %rdi,%rdi
    6868:	74 0d                	je     6877 <pybind11_set_dict+0x37>
    686a:	48 c7 00 00 00 00 00 	movq   $0x0,(%rax)
    6871:	48 83 2f 01          	subq   $0x1,(%rdi)
    6875:	74 11                	je     6888 <pybind11_set_dict+0x48>
    6877:	48 89 5d 00          	mov    %rbx,0x0(%rbp)
    687b:	31 c0                	xor    %eax,%eax
    687d:	48 83 c4 08          	add    $0x8,%rsp
    6881:	5b                   	pop    %rbx
    6882:	5d                   	pop    %rbp
    6883:	c3                   	retq   
    6884:	0f 1f 40 00          	nopl   0x0(%rax)
    6888:	48 8b 47 08          	mov    0x8(%rdi),%rax
    688c:	ff 50 30             	callq  *0x30(%rax)
    688f:	eb e6                	jmp    6877 <pybind11_set_dict+0x37>
    6891:	0f 1f 80 00 00 00 00 	nopl   0x0(%rax)
    6898:	48 8b 50 18          	mov    0x18(%rax),%rdx
    689c:	48 8b 05 0d c7 01 00 	mov    0x1c70d(%rip),%rax        # 22fb0 <PyExc_TypeError>
    68a3:	48 8d 35 9e 57 01 00 	lea    0x1579e(%rip),%rsi        # 1c048 <_fini+0xf64>
    68aa:	48 8b 38             	mov    (%rax),%rdi
    68ad:	31 c0                	xor    %eax,%eax
    68af:	e8 5c ea ff ff       	callq  5310 <PyErr_Format@plt>
    68b4:	b8 ff ff ff ff       	mov    $0xffffffff,%eax
    68b9:	eb c2                	jmp    687d <pybind11_set_dict+0x3d>
    68bb:	0f 1f 44 00 00       	nopl   0x0(%rax,%rax,1)

00000000000068c0 <_ZNSt13unordered_mapISt10type_indexPN8pybind116detail9type_infoESt4hashIS0_ESt8equal_toIS0_ESaISt4pairIKS0_S4_EEED1Ev>:
    68c0:	55                   	push   %rbp
    68c1:	53                   	push   %rbx
    68c2:	48 89 fb             	mov    %rdi,%rbx
    68c5:	48 83 ec 08          	sub    $0x8,%rsp
    68c9:	48 8b 6f 10          	mov    0x10(%rdi),%rbp
    68cd:	48 85 ed             	test   %rbp,%rbp
    68d0:	74 17                	je     68e9 <_ZNSt13unordered_mapISt10type_indexPN8pybind116detail9type_infoESt4hashIS0_ESt8equal_toIS0_ESaISt4pairIKS0_S4_EEED1Ev+0x29>
    68d2:	66 0f 1f 44 00 00    	nopw   0x0(%rax,%rax,1)
    68d8:	48 89 ef             	mov    %rbp,%rdi
    68db:	48 8b 6d 00          	mov    0x0(%rbp),%rbp
    68df:	e8 ac eb ff ff       	callq  5490 <_ZdlPv@plt>
    68e4:	48 85 ed             	test   %rbp,%rbp
    68e7:	75 ef                	jne    68d8 <_ZNSt13unordered_mapISt10type_indexPN8pybind116detail9type_infoESt4hashIS0_ESt8equal_toIS0_ESaISt4pairIKS0_S4_EEED1Ev+0x18>
    68e9:	48 8b 43 08          	mov    0x8(%rbx),%rax
    68ed:	48 8b 3b             	mov    (%rbx),%rdi
    68f0:	31 f6                	xor    %esi,%esi
    68f2:	48 83 c3 30          	add    $0x30,%rbx
    68f6:	48 8d 14 c5 00 00 00 	lea    0x0(,%rax,8),%rdx
    68fd:	00 
    68fe:	e8 5d e9 ff ff       	callq  5260 <memset@plt>
    6903:	48 8b 7b d0          	mov    -0x30(%rbx),%rdi
    6907:	48 c7 43 e8 00 00 00 	movq   $0x0,-0x18(%rbx)
    690e:	00 
    690f:	48 c7 43 e0 00 00 00 	movq   $0x0,-0x20(%rbx)
    6916:	00 
    6917:	48 39 df             	cmp    %rbx,%rdi
    691a:	74 14                	je     6930 <_ZNSt13unordered_mapISt10type_indexPN8pybind116detail9type_infoESt4hashIS0_ESt8equal_toIS0_ESaISt4pairIKS0_S4_EEED1Ev+0x70>
    691c:	48 83 c4 08          	add    $0x8,%rsp
    6920:	5b                   	pop    %rbx
    6921:	5d                   	pop    %rbp
    6922:	e9 69 eb ff ff       	jmpq   5490 <_ZdlPv@plt>
    6927:	66 0f 1f 84 00 00 00 	nopw   0x0(%rax,%rax,1)
    692e:	00 00 
    6930:	48 83 c4 08          	add    $0x8,%rsp
    6934:	5b                   	pop    %rbx
    6935:	5d                   	pop    %rbp
    6936:	c3                   	retq   
    6937:	66 0f 1f 84 00 00 00 	nopw   0x0(%rax,%rax,1)
    693e:	00 00 

0000000000006940 <pybind11_get_dict>:
    6940:	53                   	push   %rbx
    6941:	e8 8a ea ff ff       	callq  53d0 <_PyObject_GetDictPtr@plt>
    6946:	48 89 c3             	mov    %rax,%rbx
    6949:	48 8b 00             	mov    (%rax),%rax
    694c:	48 85 c0             	test   %rax,%rax
    694f:	74 0f                	je     6960 <pybind11_get_dict+0x20>
    6951:	48 83 00 01          	addq   $0x1,(%rax)
    6955:	5b                   	pop    %rbx
    6956:	c3                   	retq   
    6957:	66 0f 1f 84 00 00 00 	nopw   0x0(%rax,%rax,1)
    695e:	00 00 
    6960:	e8 cb eb ff ff       	callq  5530 <PyDict_New@plt>
    6965:	48 89 03             	mov    %rax,(%rbx)
    6968:	48 85 c0             	test   %rax,%rax
    696b:	75 e4                	jne    6951 <pybind11_get_dict+0x11>
    696d:	5b                   	pop    %rbx
    696e:	c3                   	retq   
    696f:	90                   	nop

0000000000006970 <pybind11_releasebuffer>:
    6970:	55                   	push   %rbp
    6971:	48 8b 6e 48          	mov    0x48(%rsi),%rbp
    6975:	48 85 ed             	test   %rbp,%rbp
    6978:	74 4e                	je     69c8 <pybind11_releasebuffer+0x58>
    697a:	48 8b 7d 70          	mov    0x70(%rbp),%rdi
    697e:	48 85 ff             	test   %rdi,%rdi
    6981:	74 06                	je     6989 <pybind11_releasebuffer+0x19>
    6983:	80 7d 78 00          	cmpb   $0x0,0x78(%rbp)
    6987:	75 47                	jne    69d0 <pybind11_releasebuffer+0x60>
    6989:	48 8b 7d 58          	mov    0x58(%rbp),%rdi
    698d:	48 85 ff             	test   %rdi,%rdi
    6990:	74 05                	je     6997 <pybind11_releasebuffer+0x27>
    6992:	e8 f9 ea ff ff       	callq  5490 <_ZdlPv@plt>
    6997:	48 8b 7d 40          	mov    0x40(%rbp),%rdi
    699b:	48 85 ff             	test   %rdi,%rdi
    699e:	74 05                	je     69a5 <pybind11_releasebuffer+0x35>
    69a0:	e8 eb ea ff ff       	callq  5490 <_ZdlPv@plt>
    69a5:	48 8b 7d 18          	mov    0x18(%rbp),%rdi
    69a9:	48 8d 45 28          	lea    0x28(%rbp),%rax
    69ad:	48 39 c7             	cmp    %rax,%rdi
    69b0:	74 05                	je     69b7 <pybind11_releasebuffer+0x47>
    69b2:	e8 d9 ea ff ff       	callq  5490 <_ZdlPv@plt>
    69b7:	48 89 ef             	mov    %rbp,%rdi
    69ba:	be 80 00 00 00       	mov    $0x80,%esi
    69bf:	5d                   	pop    %rbp
    69c0:	e9 0b eb ff ff       	jmpq   54d0 <_ZdlPvm@plt>
    69c5:	0f 1f 00             	nopl   (%rax)
    69c8:	5d                   	pop    %rbp
    69c9:	c3                   	retq   
    69ca:	66 0f 1f 44 00 00    	nopw   0x0(%rax,%rax,1)
    69d0:	e8 2b e9 ff ff       	callq  5300 <PyBuffer_Release@plt>
    69d5:	48 8b 7d 70          	mov    0x70(%rbp),%rdi
    69d9:	48 85 ff             	test   %rdi,%rdi
    69dc:	74 ab                	je     6989 <pybind11_releasebuffer+0x19>
    69de:	be 50 00 00 00       	mov    $0x50,%esi
    69e3:	e8 e8 ea ff ff       	callq  54d0 <_ZdlPvm@plt>
    69e8:	eb 9f                	jmp    6989 <pybind11_releasebuffer+0x19>
    69ea:	66 0f 1f 44 00 00    	nopw   0x0(%rax,%rax,1)

00000000000069f0 <_ZZN8pybind117capsuleC4EPKvPFvPvEENUlP7_objectE_4_FUNES7_>:
    69f0:	55                   	push   %rbp
    69f1:	48 89 fd             	mov    %rdi,%rbp
    69f4:	53                   	push   %rbx
    69f5:	48 83 ec 08          	sub    $0x8,%rsp
    69f9:	e8 62 eb ff ff       	callq  5560 <PyCapsule_GetContext@plt>
    69fe:	48 89 ef             	mov    %rbp,%rdi
    6a01:	31 f6                	xor    %esi,%esi
    6a03:	48 89 c3             	mov    %rax,%rbx
    6a06:	e8 15 ec ff ff       	callq  5620 <PyCapsule_GetPointer@plt>
    6a0b:	48 83 c4 08          	add    $0x8,%rsp
    6a0f:	48 89 c7             	mov    %rax,%rdi
    6a12:	48 89 d8             	mov    %rbx,%rax
    6a15:	5b                   	pop    %rbx
    6a16:	5d                   	pop    %rbp
    6a17:	ff e0                	jmpq   *%rax
    6a19:	0f 1f 80 00 00 00 00 	nopl   0x0(%rax)

0000000000006a20 <_ZZN8pybind1112cpp_function10initializeIZNS_6detail8initimpl11constructorIJEE7executeINS_6class_I9MemBusCppJEEEJELi0EEEvRT_DpRKT0_EUlRNS2_16value_and_holderEE_vJSH_EJNS_4nameENS_9is_methodENS_7siblingENS2_24is_new_style_constructorEEEEvOSA_PFT0_DpT1_EDpRKT2_ENUlRNS2_13function_callEE1_4_FUNESY_>:
    6a20:	41 54                	push   %r12
    6a22:	48 8b 47 08          	mov    0x8(%rdi),%rax
    6a26:	bf 02 00 01 00       	mov    $0x10002,%edi
    6a2b:	48 8b 00             	mov    (%rax),%rax
    6a2e:	4c 8b 60 18          	mov    0x18(%rax),%r12
    6a32:	e8 79 ea ff ff       	callq  54b0 <_Znwm@plt>
    6a37:	31 f6                	xor    %esi,%esi
    6a39:	ba 02 00 01 00       	mov    $0x10002,%edx
    6a3e:	48 89 c7             	mov    %rax,%rdi
    6a41:	e8 1a e8 ff ff       	callq  5260 <memset@plt>
    6a46:	c6 80 01 00 01 00 01 	movb   $0x1,0x10001(%rax)
    6a4d:	49 89 04 24          	mov    %rax,(%r12)
    6a51:	4c 8b 25 c0 c4 01 00 	mov    0x1c4c0(%rip),%r12        # 22f18 <_Py_NoneStruct>
    6a58:	49 83 04 24 01       	addq   $0x1,(%r12)
    6a5d:	75 0b                	jne    6a6a <_ZZN8pybind1112cpp_function10initializeIZNS_6detail8initimpl11constructorIJEE7executeINS_6class_I9MemBusCppJEEEJELi0EEEvRT_DpRKT0_EUlRNS2_16value_and_holderEE_vJSH_EJNS_4nameENS_9is_methodENS_7siblingENS2_24is_new_style_constructorEEEEvOSA_PFT0_DpT1_EDpRKT2_ENUlRNS2_13function_callEE1_4_FUNESY_+0x4a>
    6a5f:	49 8b 44 24 08       	mov    0x8(%r12),%rax
    6a64:	4c 89 e7             	mov    %r12,%rdi
    6a67:	ff 50 30             	callq  *0x30(%rax)
    6a6a:	4c 89 e0             	mov    %r12,%rax
    6a6d:	41 5c                	pop    %r12
    6a6f:	c3                   	retq   

0000000000006a70 <_ZN9MemBusCpp6read_nEii._omp_fn.0>:
    6a70:	8b 77 14             	mov    0x14(%rdi),%esi
    6a73:	48 8b 4f 08          	mov    0x8(%rdi),%rcx
    6a77:	4c 8b 07             	mov    (%rdi),%r8
    6a7a:	8b 57 10             	mov    0x10(%rdi),%edx
    6a7d:	85 f6                	test   %esi,%esi
    6a7f:	0f 8e fb 00 00 00    	jle    6b80 <_ZN9MemBusCpp6read_nEii._omp_fn.0+0x110>
    6a85:	48 63 c2             	movslq %edx,%rax
    6a88:	53                   	push   %rbx
    6a89:	01 d6                	add    %edx,%esi
    6a8b:	4d 8d 90 00 00 01 00 	lea    0x10000(%r8),%r10
    6a92:	48 01 c1             	add    %rax,%rcx
    6a95:	4d 8d 98 00 80 00 00 	lea    0x8000(%r8),%r11
    6a9c:	4d 8d 88 20 40 00 00 	lea    0x4020(%r8),%r9
    6aa3:	49 8d b8 00 20 00 00 	lea    0x2000(%r8),%rdi
    6aaa:	eb 2c                	jmp    6ad8 <_ZN9MemBusCpp6read_nEii._omp_fn.0+0x68>
    6aac:	0f 1f 40 00          	nopl   0x0(%rax)
    6ab0:	89 d3                	mov    %edx,%ebx
    6ab2:	c1 fb 1f             	sar    $0x1f,%ebx
    6ab5:	c1 eb 15             	shr    $0x15,%ebx
    6ab8:	8d 04 1a             	lea    (%rdx,%rbx,1),%eax
    6abb:	25 ff 07 00 00       	and    $0x7ff,%eax
    6ac0:	29 d8                	sub    %ebx,%eax
    6ac2:	48 98                	cltq   
    6ac4:	4c 01 c0             	add    %r8,%rax
    6ac7:	0f b6 00             	movzbl (%rax),%eax
    6aca:	83 c2 01             	add    $0x1,%edx
    6acd:	48 83 c1 01          	add    $0x1,%rcx
    6ad1:	88 41 ff             	mov    %al,-0x1(%rcx)
    6ad4:	39 f2                	cmp    %esi,%edx
    6ad6:	74 29                	je     6b01 <_ZN9MemBusCpp6read_nEii._omp_fn.0+0x91>
    6ad8:	81 fa ff 1f 00 00    	cmp    $0x1fff,%edx
    6ade:	7e d0                	jle    6ab0 <_ZN9MemBusCpp6read_nEii._omp_fn.0+0x40>
    6ae0:	81 fa ff 3f 00 00    	cmp    $0x3fff,%edx
    6ae6:	7f 20                	jg     6b08 <_ZN9MemBusCpp6read_nEii._omp_fn.0+0x98>
    6ae8:	89 d0                	mov    %edx,%eax
    6aea:	83 c2 01             	add    $0x1,%edx
    6aed:	48 83 c1 01          	add    $0x1,%rcx
    6af1:	83 e0 07             	and    $0x7,%eax
    6af4:	48 01 f8             	add    %rdi,%rax
    6af7:	0f b6 00             	movzbl (%rax),%eax
    6afa:	88 41 ff             	mov    %al,-0x1(%rcx)
    6afd:	39 f2                	cmp    %esi,%edx
    6aff:	75 d7                	jne    6ad8 <_ZN9MemBusCpp6read_nEii._omp_fn.0+0x68>
    6b01:	5b                   	pop    %rbx
    6b02:	c3                   	retq   
    6b03:	0f 1f 44 00 00       	nopl   0x0(%rax,%rax,1)
    6b08:	81 fa 1f 40 00 00    	cmp    $0x401f,%edx
    6b0e:	7f 10                	jg     6b20 <_ZN9MemBusCpp6read_nEii._omp_fn.0+0xb0>
    6b10:	8d 82 00 e0 ff ff    	lea    -0x2000(%rdx),%eax
    6b16:	48 01 f8             	add    %rdi,%rax
    6b19:	eb ac                	jmp    6ac7 <_ZN9MemBusCpp6read_nEii._omp_fn.0+0x57>
    6b1b:	0f 1f 44 00 00       	nopl   0x0(%rax,%rax,1)
    6b20:	81 fa ff 5f 00 00    	cmp    $0x5fff,%edx
    6b26:	7f 10                	jg     6b38 <_ZN9MemBusCpp6read_nEii._omp_fn.0+0xc8>
    6b28:	8d 82 e0 bf ff ff    	lea    -0x4020(%rdx),%eax
    6b2e:	4c 01 c8             	add    %r9,%rax
    6b31:	eb 94                	jmp    6ac7 <_ZN9MemBusCpp6read_nEii._omp_fn.0+0x57>
    6b33:	0f 1f 44 00 00       	nopl   0x0(%rax,%rax,1)
    6b38:	4c 89 d0             	mov    %r10,%rax
    6b3b:	81 fa ff ff 00 00    	cmp    $0xffff,%edx
    6b41:	7f 84                	jg     6ac7 <_ZN9MemBusCpp6read_nEii._omp_fn.0+0x57>
    6b43:	41 80 b8 01 00 01 00 	cmpb   $0x0,0x10001(%r8)
    6b4a:	00 
    6b4b:	74 23                	je     6b70 <_ZN9MemBusCpp6read_nEii._omp_fn.0+0x100>
    6b4d:	8d 82 00 80 ff ff    	lea    -0x8000(%rdx),%eax
    6b53:	89 c3                	mov    %eax,%ebx
    6b55:	c1 fb 1f             	sar    $0x1f,%ebx
    6b58:	c1 eb 12             	shr    $0x12,%ebx
    6b5b:	01 d8                	add    %ebx,%eax
    6b5d:	25 ff 3f 00 00       	and    $0x3fff,%eax
    6b62:	29 d8                	sub    %ebx,%eax
    6b64:	48 98                	cltq   
    6b66:	4c 01 d8             	add    %r11,%rax
    6b69:	e9 59 ff ff ff       	jmpq   6ac7 <_ZN9MemBusCpp6read_nEii._omp_fn.0+0x57>
    6b6e:	66 90                	xchg   %ax,%ax
    6b70:	89 d0                	mov    %edx,%eax
    6b72:	25 ff 7f 00 00       	and    $0x7fff,%eax
    6b77:	4c 01 d8             	add    %r11,%rax
    6b7a:	e9 48 ff ff ff       	jmpq   6ac7 <_ZN9MemBusCpp6read_nEii._omp_fn.0+0x57>
    6b7f:	90                   	nop
    6b80:	c3                   	retq   
    6b81:	66 2e 0f 1f 84 00 00 	nopw   %cs:0x0(%rax,%rax,1)
    6b88:	00 00 00 
    6b8b:	0f 1f 44 00 00       	nopl   0x0(%rax,%rax,1)

0000000000006b90 <_ZN9MemBusCpp7write_nEiiN8pybind117array_tIhLi16EEE._omp_fn.0>:
    6b90:	8b 47 14             	mov    0x14(%rdi),%eax
    6b93:	8b 57 10             	mov    0x10(%rdi),%edx
    6b96:	4c 8b 0f             	mov    (%rdi),%r9
    6b99:	48 8b 4f 08          	mov    0x8(%rdi),%rcx
    6b9d:	44 8d 04 10          	lea    (%rax,%rdx,1),%r8d
    6ba1:	85 c0                	test   %eax,%eax
    6ba3:	0f 8e 17 01 00 00    	jle    6cc0 <_ZN9MemBusCpp7write_nEiiN8pybind117array_tIhLi16EEE._omp_fn.0+0x130>
    6ba9:	41 89 d2             	mov    %edx,%r10d
    6bac:	41 54                	push   %r12
    6bae:	4d 8d 99 20 40 00 00 	lea    0x4020(%r9),%r11
    6bb5:	49 8d b9 00 20 00 00 	lea    0x2000(%r9),%rdi
    6bbc:	55                   	push   %rbp
    6bbd:	41 29 ca             	sub    %ecx,%r10d
    6bc0:	49 8d a9 00 80 00 00 	lea    0x8000(%r9),%rbp
    6bc7:	53                   	push   %rbx
    6bc8:	49 8d 99 00 00 01 00 	lea    0x10000(%r9),%rbx
    6bcf:	eb 32                	jmp    6c03 <_ZN9MemBusCpp7write_nEiiN8pybind117array_tIhLi16EEE._omp_fn.0+0x73>
    6bd1:	0f 1f 80 00 00 00 00 	nopl   0x0(%rax)
    6bd8:	41 89 d4             	mov    %edx,%r12d
    6bdb:	41 c1 fc 1f          	sar    $0x1f,%r12d
    6bdf:	41 c1 ec 15          	shr    $0x15,%r12d
    6be3:	42 8d 04 22          	lea    (%rdx,%r12,1),%eax
    6be7:	25 ff 07 00 00       	and    $0x7ff,%eax
    6bec:	44 29 e0             	sub    %r12d,%eax
    6bef:	48 98                	cltq   
    6bf1:	4c 01 c8             	add    %r9,%rax
    6bf4:	83 c2 01             	add    $0x1,%edx
    6bf7:	40 88 30             	mov    %sil,(%rax)
    6bfa:	48 83 c1 01          	add    $0x1,%rcx
    6bfe:	41 39 d0             	cmp    %edx,%r8d
    6c01:	74 2a                	je     6c2d <_ZN9MemBusCpp7write_nEiiN8pybind117array_tIhLi16EEE._omp_fn.0+0x9d>
    6c03:	0f b6 31             	movzbl (%rcx),%esi
    6c06:	81 fa ff 1f 00 00    	cmp    $0x1fff,%edx
    6c0c:	7e ca                	jle    6bd8 <_ZN9MemBusCpp7write_nEiiN8pybind117array_tIhLi16EEE._omp_fn.0+0x48>
    6c0e:	81 fa ff 3f 00 00    	cmp    $0x3fff,%edx
    6c14:	7f 22                	jg     6c38 <_ZN9MemBusCpp7write_nEiiN8pybind117array_tIhLi16EEE._omp_fn.0+0xa8>
    6c16:	89 d0                	mov    %edx,%eax
    6c18:	83 c2 01             	add    $0x1,%edx
    6c1b:	48 83 c1 01          	add    $0x1,%rcx
    6c1f:	83 e0 07             	and    $0x7,%eax
    6c22:	48 01 f8             	add    %rdi,%rax
    6c25:	40 88 30             	mov    %sil,(%rax)
    6c28:	41 39 d0             	cmp    %edx,%r8d
    6c2b:	75 d6                	jne    6c03 <_ZN9MemBusCpp7write_nEiiN8pybind117array_tIhLi16EEE._omp_fn.0+0x73>
    6c2d:	5b                   	pop    %rbx
    6c2e:	5d                   	pop    %rbp
    6c2f:	41 5c                	pop    %r12
    6c31:	c3                   	retq   
    6c32:	66 0f 1f 44 00 00    	nopw   0x0(%rax,%rax,1)
    6c38:	81 fa 1f 40 00 00    	cmp    $0x401f,%edx
    6c3e:	7f 10                	jg     6c50 <_ZN9MemBusCpp7write_nEiiN8pybind117array_tIhLi16EEE._omp_fn.0+0xc0>
    6c40:	8d 82 00 e0 ff ff    	lea    -0x2000(%rdx),%eax
    6c46:	48 01 f8             	add    %rdi,%rax
    6c49:	eb a9                	jmp    6bf4 <_ZN9MemBusCpp7write_nEiiN8pybind117array_tIhLi16EEE._omp_fn.0+0x64>
    6c4b:	0f 1f 44 00 00       	nopl   0x0(%rax,%rax,1)
    6c50:	45 8d 24 0a          	lea    (%r10,%rcx,1),%r12d
    6c54:	41 81 fc ff 5f 00 00 	cmp    $0x5fff,%r12d
    6c5b:	7f 13                	jg     6c70 <_ZN9MemBusCpp7write_nEiiN8pybind117array_tIhLi16EEE._omp_fn.0+0xe0>
    6c5d:	8d 82 e0 bf ff ff    	lea    -0x4020(%rdx),%eax
    6c63:	4c 01 d8             	add    %r11,%rax
    6c66:	eb 8c                	jmp    6bf4 <_ZN9MemBusCpp7write_nEiiN8pybind117array_tIhLi16EEE._omp_fn.0+0x64>
    6c68:	0f 1f 84 00 00 00 00 	nopl   0x0(%rax,%rax,1)
    6c6f:	00 
    6c70:	48 89 d8             	mov    %rbx,%rax
    6c73:	41 81 fc ff ff 00 00 	cmp    $0xffff,%r12d
    6c7a:	0f 8f 74 ff ff ff    	jg     6bf4 <_ZN9MemBusCpp7write_nEiiN8pybind117array_tIhLi16EEE._omp_fn.0+0x64>
    6c80:	41 80 b9 01 00 01 00 	cmpb   $0x0,0x10001(%r9)
    6c87:	00 
    6c88:	74 26                	je     6cb0 <_ZN9MemBusCpp7write_nEiiN8pybind117array_tIhLi16EEE._omp_fn.0+0x120>
    6c8a:	8d 82 00 80 ff ff    	lea    -0x8000(%rdx),%eax
    6c90:	41 89 c4             	mov    %eax,%r12d
    6c93:	41 c1 fc 1f          	sar    $0x1f,%r12d
    6c97:	41 c1 ec 12          	shr    $0x12,%r12d
    6c9b:	44 01 e0             	add    %r12d,%eax
    6c9e:	25 ff 3f 00 00       	and    $0x3fff,%eax
    6ca3:	44 29 e0             	sub    %r12d,%eax
    6ca6:	48 98                	cltq   
    6ca8:	48 01 e8             	add    %rbp,%rax
    6cab:	e9 44 ff ff ff       	jmpq   6bf4 <_ZN9MemBusCpp7write_nEiiN8pybind117array_tIhLi16EEE._omp_fn.0+0x64>
    6cb0:	89 d0                	mov    %edx,%eax
    6cb2:	25 ff 7f 00 00       	and    $0x7fff,%eax
    6cb7:	48 01 e8             	add    %rbp,%rax
    6cba:	e9 35 ff ff ff       	jmpq   6bf4 <_ZN9MemBusCpp7write_nEiiN8pybind117array_tIhLi16EEE._omp_fn.0+0x64>
    6cbf:	90                   	nop
    6cc0:	c3                   	retq   
    6cc1:	66 2e 0f 1f 84 00 00 	nopw   %cs:0x0(%rax,%rax,1)
    6cc8:	00 00 00 
    6ccb:	0f 1f 44 00 00       	nopl   0x0(%rax,%rax,1)

0000000000006cd0 <_ZN9MemBusCpp4readEi>:
    6cd0:	81 fe ff 1f 00 00    	cmp    $0x1fff,%esi
    6cd6:	7f 20                	jg     6cf8 <_ZN9MemBusCpp4readEi+0x28>
    6cd8:	89 f0                	mov    %esi,%eax
    6cda:	c1 f8 1f             	sar    $0x1f,%eax
    6cdd:	c1 e8 15             	shr    $0x15,%eax
    6ce0:	01 c6                	add    %eax,%esi
    6ce2:	81 e6 ff 07 00 00    	and    $0x7ff,%esi
    6ce8:	29 c6                	sub    %eax,%esi
    6cea:	48 63 f6             	movslq %esi,%rsi
    6ced:	48 8d 04 37          	lea    (%rdi,%rsi,1),%rax
    6cf1:	0f b6 00             	movzbl (%rax),%eax
    6cf4:	c3                   	retq   
    6cf5:	0f 1f 00             	nopl   (%rax)
    6cf8:	81 fe ff 3f 00 00    	cmp    $0x3fff,%esi
    6cfe:	7f 10                	jg     6d10 <_ZN9MemBusCpp4readEi+0x40>
    6d00:	83 e6 07             	and    $0x7,%esi
    6d03:	48 8d 84 37 00 20 00 	lea    0x2000(%rdi,%rsi,1),%rax
    6d0a:	00 
    6d0b:	0f b6 00             	movzbl (%rax),%eax
    6d0e:	c3                   	retq   
    6d0f:	90                   	nop
    6d10:	81 fe 1f 40 00 00    	cmp    $0x401f,%esi
    6d16:	7e 20                	jle    6d38 <_ZN9MemBusCpp4readEi+0x68>
    6d18:	81 fe ff 5f 00 00    	cmp    $0x5fff,%esi
    6d1e:	7f 30                	jg     6d50 <_ZN9MemBusCpp4readEi+0x80>
    6d20:	81 ee 20 40 00 00    	sub    $0x4020,%esi
    6d26:	48 63 f6             	movslq %esi,%rsi
    6d29:	48 8d 84 37 20 40 00 	lea    0x4020(%rdi,%rsi,1),%rax
    6d30:	00 
    6d31:	eb be                	jmp    6cf1 <_ZN9MemBusCpp4readEi+0x21>
    6d33:	0f 1f 44 00 00       	nopl   0x0(%rax,%rax,1)
    6d38:	81 ee 00 20 00 00    	sub    $0x2000,%esi
    6d3e:	48 63 f6             	movslq %esi,%rsi
    6d41:	48 8d 84 37 00 20 00 	lea    0x2000(%rdi,%rsi,1),%rax
    6d48:	00 
    6d49:	0f b6 00             	movzbl (%rax),%eax
    6d4c:	c3                   	retq   
    6d4d:	0f 1f 00             	nopl   (%rax)
    6d50:	48 8d 87 00 00 01 00 	lea    0x10000(%rdi),%rax
    6d57:	81 fe ff ff 00 00    	cmp    $0xffff,%esi
    6d5d:	7f 92                	jg     6cf1 <_ZN9MemBusCpp4readEi+0x21>
    6d5f:	80 bf 01 00 01 00 00 	cmpb   $0x0,0x10001(%rdi)
    6d66:	48 8d 97 00 80 00 00 	lea    0x8000(%rdi),%rdx
    6d6d:	74 29                	je     6d98 <_ZN9MemBusCpp4readEi+0xc8>
    6d6f:	81 ee 00 80 00 00    	sub    $0x8000,%esi
    6d75:	89 f1                	mov    %esi,%ecx
    6d77:	c1 f9 1f             	sar    $0x1f,%ecx
    6d7a:	c1 e9 12             	shr    $0x12,%ecx
    6d7d:	8d 04 0e             	lea    (%rsi,%rcx,1),%eax
    6d80:	25 ff 3f 00 00       	and    $0x3fff,%eax
    6d85:	29 c8                	sub    %ecx,%eax
    6d87:	48 98                	cltq   
    6d89:	48 01 d0             	add    %rdx,%rax
    6d8c:	e9 60 ff ff ff       	jmpq   6cf1 <_ZN9MemBusCpp4readEi+0x21>
    6d91:	0f 1f 80 00 00 00 00 	nopl   0x0(%rax)
    6d98:	81 e6 ff 7f 00 00    	and    $0x7fff,%esi
    6d9e:	48 8d 04 32          	lea    (%rdx,%rsi,1),%rax
    6da2:	e9 4a ff ff ff       	jmpq   6cf1 <_ZN9MemBusCpp4readEi+0x21>
    6da7:	66 0f 1f 84 00 00 00 	nopw   0x0(%rax,%rax,1)
    6dae:	00 00 

0000000000006db0 <pybind11_object_init>:
    6db0:	41 54                	push   %r12
    6db2:	55                   	push   %rbp
    6db3:	53                   	push   %rbx
    6db4:	48 83 ec 30          	sub    $0x30,%rsp
    6db8:	64 48 8b 04 25 28 00 	mov    %fs:0x28,%rax
    6dbf:	00 00 
    6dc1:	48 89 44 24 28       	mov    %rax,0x28(%rsp)
    6dc6:	31 c0                	xor    %eax,%eax
    6dc8:	48 8b 47 08          	mov    0x8(%rdi),%rax
    6dcc:	48 8d 5c 24 10       	lea    0x10(%rsp),%rbx
    6dd1:	c6 44 24 10 00       	movb   $0x0,0x10(%rsp)
    6dd6:	48 89 1c 24          	mov    %rbx,(%rsp)
    6dda:	48 c7 44 24 08 00 00 	movq   $0x0,0x8(%rsp)
    6de1:	00 00 
    6de3:	4c 8b 60 18          	mov    0x18(%rax),%r12
    6de7:	4c 89 e7             	mov    %r12,%rdi
    6dea:	e8 e1 e3 ff ff       	callq  51d0 <strlen@plt>
    6def:	48 89 c2             	mov    %rax,%rdx
    6df2:	48 b8 ff ff ff ff ff 	movabs $0x3fffffffffffffff,%rax
    6df9:	ff ff 3f 
    6dfc:	48 39 c2             	cmp    %rax,%rdx
    6dff:	77 76                	ja     6e77 <pybind11_object_init+0xc7>
    6e01:	48 89 e5             	mov    %rsp,%rbp
    6e04:	4c 89 e6             	mov    %r12,%rsi
    6e07:	48 89 ef             	mov    %rbp,%rdi
    6e0a:	e8 01 e3 ff ff       	callq  5110 <_ZNSt7__cxx1112basic_stringIcSt11char_traitsIcESaIcEE9_M_appendEPKcm@plt>
    6e0f:	48 b8 ff ff ff ff ff 	movabs $0x3fffffffffffffff,%rax
    6e16:	ff ff 3f 
    6e19:	48 2b 44 24 08       	sub    0x8(%rsp),%rax
    6e1e:	48 83 f8 18          	cmp    $0x18,%rax
    6e22:	76 64                	jbe    6e88 <pybind11_object_init+0xd8>
    6e24:	ba 19 00 00 00       	mov    $0x19,%edx
    6e29:	48 8d 35 ea 53 01 00 	lea    0x153ea(%rip),%rsi        # 1c21a <_fini+0x1136>
    6e30:	48 89 ef             	mov    %rbp,%rdi
    6e33:	e8 d8 e2 ff ff       	callq  5110 <_ZNSt7__cxx1112basic_stringIcSt11char_traitsIcESaIcEE9_M_appendEPKcm@plt>
    6e38:	48 8b 05 71 c1 01 00 	mov    0x1c171(%rip),%rax        # 22fb0 <PyExc_TypeError>
    6e3f:	48 8b 34 24          	mov    (%rsp),%rsi
    6e43:	48 8b 38             	mov    (%rax),%rdi
    6e46:	e8 f5 e6 ff ff       	callq  5540 <PyErr_SetString@plt>
    6e4b:	48 8b 3c 24          	mov    (%rsp),%rdi
    6e4f:	48 39 df             	cmp    %rbx,%rdi
    6e52:	74 05                	je     6e59 <pybind11_object_init+0xa9>
    6e54:	e8 37 e6 ff ff       	callq  5490 <_ZdlPv@plt>
    6e59:	48 8b 44 24 28       	mov    0x28(%rsp),%rax
    6e5e:	64 48 33 04 25 28 00 	xor    %fs:0x28,%rax
    6e65:	00 00 
    6e67:	75 1a                	jne    6e83 <pybind11_object_init+0xd3>
    6e69:	48 83 c4 30          	add    $0x30,%rsp
    6e6d:	b8 ff ff ff ff       	mov    $0xffffffff,%eax
    6e72:	5b                   	pop    %rbx
    6e73:	5d                   	pop    %rbp
    6e74:	41 5c                	pop    %r12
    6e76:	c3                   	retq   
    6e77:	48 8d 3d 87 53 01 00 	lea    0x15387(%rip),%rdi        # 1c205 <_fini+0x1121>
    6e7e:	e8 bd e3 ff ff       	callq  5240 <_ZSt20__throw_length_errorPKc@plt>
    6e83:	e8 98 e6 ff ff       	callq  5520 <__stack_chk_fail@plt>
    6e88:	48 8d 3d 76 53 01 00 	lea    0x15376(%rip),%rdi        # 1c205 <_fini+0x1121>
    6e8f:	e8 ac e3 ff ff       	callq  5240 <_ZSt20__throw_length_errorPKc@plt>
    6e94:	48 89 c5             	mov    %rax,%rbp
    6e97:	48 8b 3c 24          	mov    (%rsp),%rdi
    6e9b:	48 39 df             	cmp    %rbx,%rdi
    6e9e:	74 05                	je     6ea5 <pybind11_object_init+0xf5>
    6ea0:	e8 eb e5 ff ff       	callq  5490 <_ZdlPv@plt>
    6ea5:	48 89 ef             	mov    %rbp,%rdi
    6ea8:	e8 b3 e9 ff ff       	callq  5860 <_Unwind_Resume@plt>
    6ead:	0f 1f 00             	nopl   (%rax)

0000000000006eb0 <_ZNK8pybind113strcvNSt7__cxx1112basic_stringIcSt11char_traitsIcESaIcEEEEv>:
    6eb0:	41 56                	push   %r14
    6eb2:	41 55                	push   %r13
    6eb4:	41 54                	push   %r12
    6eb6:	49 89 fc             	mov    %rdi,%r12
    6eb9:	55                   	push   %rbp
    6eba:	48 83 ec 28          	sub    $0x28,%rsp
    6ebe:	48 8b 2e             	mov    (%rsi),%rbp
    6ec1:	64 48 8b 04 25 28 00 	mov    %fs:0x28,%rax
    6ec8:	00 00 
    6eca:	48 89 44 24 18       	mov    %rax,0x18(%rsp)
    6ecf:	31 c0                	xor    %eax,%eax
    6ed1:	48 85 ed             	test   %rbp,%rbp
    6ed4:	74 05                	je     6edb <_ZNK8pybind113strcvNSt7__cxx1112basic_stringIcSt11char_traitsIcESaIcEEEEv+0x2b>
    6ed6:	48 83 45 00 01       	addq   $0x1,0x0(%rbp)
    6edb:	48 8b 45 08          	mov    0x8(%rbp),%rax
    6edf:	f6 80 ab 00 00 00 10 	testb  $0x10,0xab(%rax)
    6ee6:	74 22                	je     6f0a <_ZNK8pybind113strcvNSt7__cxx1112basic_stringIcSt11char_traitsIcESaIcEEEEv+0x5a>
    6ee8:	48 89 ef             	mov    %rbp,%rdi
    6eeb:	e8 60 ea ff ff       	callq  5950 <PyUnicode_AsUTF8String@plt>
    6ef0:	48 83 6d 00 01       	subq   $0x1,0x0(%rbp)
    6ef5:	49 89 c5             	mov    %rax,%r13
    6ef8:	0f 84 b2 00 00 00    	je     6fb0 <_ZNK8pybind113strcvNSt7__cxx1112basic_stringIcSt11char_traitsIcESaIcEEEEv+0x100>
    6efe:	4d 85 ed             	test   %r13,%r13
    6f01:	0f 84 08 01 00 00    	je     700f <_ZNK8pybind113strcvNSt7__cxx1112basic_stringIcSt11char_traitsIcESaIcEEEEv+0x15f>
    6f07:	4c 89 ed             	mov    %r13,%rbp
    6f0a:	48 8d 54 24 08       	lea    0x8(%rsp),%rdx
    6f0f:	48 89 e6             	mov    %rsp,%rsi
    6f12:	48 89 ef             	mov    %rbp,%rdi
    6f15:	e8 46 ea ff ff       	callq  5960 <PyBytes_AsStringAndSize@plt>
    6f1a:	85 c0                	test   %eax,%eax
    6f1c:	0f 85 f9 00 00 00    	jne    701b <_ZNK8pybind113strcvNSt7__cxx1112basic_stringIcSt11char_traitsIcESaIcEEEEv+0x16b>
    6f22:	4c 8b 34 24          	mov    (%rsp),%r14
    6f26:	4c 8b 6c 24 08       	mov    0x8(%rsp),%r13
    6f2b:	49 8d 7c 24 10       	lea    0x10(%r12),%rdi
    6f30:	49 89 3c 24          	mov    %rdi,(%r12)
    6f34:	4c 89 f0             	mov    %r14,%rax
    6f37:	4c 01 e8             	add    %r13,%rax
    6f3a:	74 09                	je     6f45 <_ZNK8pybind113strcvNSt7__cxx1112basic_stringIcSt11char_traitsIcESaIcEEEEv+0x95>
    6f3c:	4d 85 f6             	test   %r14,%r14
    6f3f:	0f 84 b4 00 00 00    	je     6ff9 <_ZNK8pybind113strcvNSt7__cxx1112basic_stringIcSt11char_traitsIcESaIcEEEEv+0x149>
    6f45:	4c 89 6c 24 10       	mov    %r13,0x10(%rsp)
    6f4a:	49 83 fd 0f          	cmp    $0xf,%r13
    6f4e:	77 70                	ja     6fc0 <_ZNK8pybind113strcvNSt7__cxx1112basic_stringIcSt11char_traitsIcESaIcEEEEv+0x110>
    6f50:	49 83 fd 01          	cmp    $0x1,%r13
    6f54:	75 4a                	jne    6fa0 <_ZNK8pybind113strcvNSt7__cxx1112basic_stringIcSt11char_traitsIcESaIcEEEEv+0xf0>
    6f56:	41 0f b6 06          	movzbl (%r14),%eax
    6f5a:	41 88 44 24 10       	mov    %al,0x10(%r12)
    6f5f:	4d 89 6c 24 08       	mov    %r13,0x8(%r12)
    6f64:	42 c6 04 2f 00       	movb   $0x0,(%rdi,%r13,1)
    6f69:	48 83 6d 00 01       	subq   $0x1,0x0(%rbp)
    6f6e:	75 0a                	jne    6f7a <_ZNK8pybind113strcvNSt7__cxx1112basic_stringIcSt11char_traitsIcESaIcEEEEv+0xca>
    6f70:	48 8b 45 08          	mov    0x8(%rbp),%rax
    6f74:	48 89 ef             	mov    %rbp,%rdi
    6f77:	ff 50 30             	callq  *0x30(%rax)
    6f7a:	48 8b 44 24 18       	mov    0x18(%rsp),%rax
    6f7f:	64 48 33 04 25 28 00 	xor    %fs:0x28,%rax
    6f86:	00 00 
    6f88:	75 7b                	jne    7005 <_ZNK8pybind113strcvNSt7__cxx1112basic_stringIcSt11char_traitsIcESaIcEEEEv+0x155>
    6f8a:	48 83 c4 28          	add    $0x28,%rsp
    6f8e:	4c 89 e0             	mov    %r12,%rax
    6f91:	5d                   	pop    %rbp
    6f92:	41 5c                	pop    %r12
    6f94:	41 5d                	pop    %r13
    6f96:	41 5e                	pop    %r14
    6f98:	c3                   	retq   
    6f99:	0f 1f 80 00 00 00 00 	nopl   0x0(%rax)
    6fa0:	4d 85 ed             	test   %r13,%r13
    6fa3:	74 ba                	je     6f5f <_ZNK8pybind113strcvNSt7__cxx1112basic_stringIcSt11char_traitsIcESaIcEEEEv+0xaf>
    6fa5:	eb 39                	jmp    6fe0 <_ZNK8pybind113strcvNSt7__cxx1112basic_stringIcSt11char_traitsIcESaIcEEEEv+0x130>
    6fa7:	66 0f 1f 84 00 00 00 	nopw   0x0(%rax,%rax,1)
    6fae:	00 00 
    6fb0:	48 8b 45 08          	mov    0x8(%rbp),%rax
    6fb4:	48 89 ef             	mov    %rbp,%rdi
    6fb7:	ff 50 30             	callq  *0x30(%rax)
    6fba:	e9 3f ff ff ff       	jmpq   6efe <_ZNK8pybind113strcvNSt7__cxx1112basic_stringIcSt11char_traitsIcESaIcEEEEv+0x4e>
    6fbf:	90                   	nop
    6fc0:	48 8d 74 24 10       	lea    0x10(%rsp),%rsi
    6fc5:	31 d2                	xor    %edx,%edx
    6fc7:	4c 89 e7             	mov    %r12,%rdi
    6fca:	e8 b1 e8 ff ff       	callq  5880 <_ZNSt7__cxx1112basic_stringIcSt11char_traitsIcESaIcEE9_M_createERmm@plt>
    6fcf:	49 89 04 24          	mov    %rax,(%r12)
    6fd3:	48 89 c7             	mov    %rax,%rdi
    6fd6:	48 8b 44 24 10       	mov    0x10(%rsp),%rax
    6fdb:	49 89 44 24 10       	mov    %rax,0x10(%r12)
    6fe0:	4c 89 ea             	mov    %r13,%rdx
    6fe3:	4c 89 f6             	mov    %r14,%rsi
    6fe6:	e8 a5 e3 ff ff       	callq  5390 <memcpy@plt>
    6feb:	4c 8b 6c 24 10       	mov    0x10(%rsp),%r13
    6ff0:	49 8b 3c 24          	mov    (%r12),%rdi
    6ff4:	e9 66 ff ff ff       	jmpq   6f5f <_ZNK8pybind113strcvNSt7__cxx1112basic_stringIcSt11char_traitsIcESaIcEEEEv+0xaf>
    6ff9:	48 8d 3d f0 50 01 00 	lea    0x150f0(%rip),%rdi        # 1c0f0 <_fini+0x100c>
    7000:	e8 2b e3 ff ff       	callq  5330 <_ZSt19__throw_logic_errorPKc@plt>
    7005:	e8 16 e5 ff ff       	callq  5520 <__stack_chk_fail@plt>
    700a:	49 89 c4             	mov    %rax,%r12
    700d:	eb 18                	jmp    7027 <_ZNK8pybind113strcvNSt7__cxx1112basic_stringIcSt11char_traitsIcESaIcEEEEv+0x177>
    700f:	48 8d 3d 22 52 01 00 	lea    0x15222(%rip),%rdi        # 1c238 <_fini+0x1154>
    7016:	e8 65 e9 ff ff       	callq  5980 <_ZN8pybind1113pybind11_failEPKc>
    701b:	48 8d 3d 4e 52 01 00 	lea    0x1524e(%rip),%rdi        # 1c270 <_fini+0x118c>
    7022:	e8 59 e9 ff ff       	callq  5980 <_ZN8pybind1113pybind11_failEPKc>
    7027:	48 83 6d 00 01       	subq   $0x1,0x0(%rbp)
    702c:	75 0a                	jne    7038 <_ZNK8pybind113strcvNSt7__cxx1112basic_stringIcSt11char_traitsIcESaIcEEEEv+0x188>
    702e:	48 8b 45 08          	mov    0x8(%rbp),%rax
    7032:	48 89 ef             	mov    %rbp,%rdi
    7035:	ff 50 30             	callq  *0x30(%rax)
    7038:	4c 89 e7             	mov    %r12,%rdi
    703b:	e8 20 e8 ff ff       	callq  5860 <_Unwind_Resume@plt>
    7040:	49 89 c4             	mov    %rax,%r12
    7043:	eb f3                	jmp    7038 <_ZNK8pybind113strcvNSt7__cxx1112basic_stringIcSt11char_traitsIcESaIcEEEEv+0x188>
    7045:	66 2e 0f 1f 84 00 00 	nopw   %cs:0x0(%rax,%rax,1)
    704c:	00 00 00 
    704f:	90                   	nop

0000000000007050 <_ZN8pybind115tupleC1Em>:
    7050:	55                   	push   %rbp
    7051:	53                   	push   %rbx
    7052:	48 89 fb             	mov    %rdi,%rbx
    7055:	48 89 f7             	mov    %rsi,%rdi
    7058:	48 83 ec 08          	sub    $0x8,%rsp
    705c:	e8 8f e1 ff ff       	callq  51f0 <PyTuple_New@plt>
    7061:	48 89 03             	mov    %rax,(%rbx)
    7064:	48 85 c0             	test   %rax,%rax
    7067:	74 07                	je     7070 <_ZN8pybind115tupleC1Em+0x20>
    7069:	48 83 c4 08          	add    $0x8,%rsp
    706d:	5b                   	pop    %rbx
    706e:	5d                   	pop    %rbp
    706f:	c3                   	retq   
    7070:	48 8d 3d 31 52 01 00 	lea    0x15231(%rip),%rdi        # 1c2a8 <_fini+0x11c4>
    7077:	e8 04 e9 ff ff       	callq  5980 <_ZN8pybind1113pybind11_failEPKc>
    707c:	48 89 c5             	mov    %rax,%rbp
    707f:	48 8b 3b             	mov    (%rbx),%rdi
    7082:	48 85 ff             	test   %rdi,%rdi
    7085:	74 06                	je     708d <_ZN8pybind115tupleC1Em+0x3d>
    7087:	48 83 2f 01          	subq   $0x1,(%rdi)
    708b:	74 08                	je     7095 <_ZN8pybind115tupleC1Em+0x45>
    708d:	48 89 ef             	mov    %rbp,%rdi
    7090:	e8 cb e7 ff ff       	callq  5860 <_Unwind_Resume@plt>
    7095:	48 8b 47 08          	mov    0x8(%rdi),%rax
    7099:	ff 50 30             	callq  *0x30(%rax)
    709c:	eb ef                	jmp    708d <_ZN8pybind115tupleC1Em+0x3d>
    709e:	66 90                	xchg   %ax,%ax

00000000000070a0 <_ZN8pybind116detail8accessorINS0_17accessor_policies12generic_itemEED1Ev>:
    70a0:	53                   	push   %rbx
    70a1:	48 89 fb             	mov    %rdi,%rbx
    70a4:	48 8b 7f 18          	mov    0x18(%rdi),%rdi
    70a8:	48 85 ff             	test   %rdi,%rdi
    70ab:	74 06                	je     70b3 <_ZN8pybind116detail8accessorINS0_17accessor_policies12generic_itemEED1Ev+0x13>
    70ad:	48 83 2f 01          	subq   $0x1,(%rdi)
    70b1:	74 25                	je     70d8 <_ZN8pybind116detail8accessorINS0_17accessor_policies12generic_itemEED1Ev+0x38>
    70b3:	48 8b 7b 10          	mov    0x10(%rbx),%rdi
    70b7:	48 85 ff             	test   %rdi,%rdi
    70ba:	74 06                	je     70c2 <_ZN8pybind116detail8accessorINS0_17accessor_policies12generic_itemEED1Ev+0x22>
    70bc:	48 83 2f 01          	subq   $0x1,(%rdi)
    70c0:	74 06                	je     70c8 <_ZN8pybind116detail8accessorINS0_17accessor_policies12generic_itemEED1Ev+0x28>
    70c2:	5b                   	pop    %rbx
    70c3:	c3                   	retq   
    70c4:	0f 1f 40 00          	nopl   0x0(%rax)
    70c8:	48 8b 47 08          	mov    0x8(%rdi),%rax
    70cc:	ff 50 30             	callq  *0x30(%rax)
    70cf:	5b                   	pop    %rbx
    70d0:	c3                   	retq   
    70d1:	0f 1f 80 00 00 00 00 	nopl   0x0(%rax)
    70d8:	48 8b 47 08          	mov    0x8(%rdi),%rax
    70dc:	ff 50 30             	callq  *0x30(%rax)
    70df:	eb d2                	jmp    70b3 <_ZN8pybind116detail8accessorINS0_17accessor_policies12generic_itemEED1Ev+0x13>
    70e1:	66 2e 0f 1f 84 00 00 	nopw   %cs:0x0(%rax,%rax,1)
    70e8:	00 00 00 
    70eb:	0f 1f 44 00 00       	nopl   0x0(%rax,%rax,1)

00000000000070f0 <_ZN8pybind116detail13clean_type_idERNSt7__cxx1112basic_stringIcSt11char_traitsIcESaIcEEE>:
    70f0:	41 55                	push   %r13
    70f2:	31 d2                	xor    %edx,%edx
    70f4:	31 f6                	xor    %esi,%esi
    70f6:	41 54                	push   %r12
    70f8:	55                   	push   %rbp
    70f9:	53                   	push   %rbx
    70fa:	48 89 fb             	mov    %rdi,%rbx
    70fd:	48 83 ec 48          	sub    $0x48,%rsp
    7101:	48 8b 3f             	mov    (%rdi),%rdi
    7104:	64 48 8b 04 25 28 00 	mov    %fs:0x28,%rax
    710b:	00 00 
    710d:	48 89 44 24 38       	mov    %rax,0x38(%rsp)
    7112:	31 c0                	xor    %eax,%eax
    7114:	48 8d 4c 24 0c       	lea    0xc(%rsp),%rcx
    7119:	c7 44 24 0c 00 00 00 	movl   $0x0,0xc(%rsp)
    7120:	00 
    7121:	e8 ca e2 ff ff       	callq  53f0 <__cxa_demangle@plt>
    7126:	8b 54 24 0c          	mov    0xc(%rsp),%edx
    712a:	48 89 c5             	mov    %rax,%rbp
    712d:	85 d2                	test   %edx,%edx
    712f:	75 1c                	jne    714d <_ZN8pybind116detail13clean_type_idERNSt7__cxx1112basic_stringIcSt11char_traitsIcESaIcEEE+0x5d>
    7131:	48 89 c7             	mov    %rax,%rdi
    7134:	e8 97 e0 ff ff       	callq  51d0 <strlen@plt>
    7139:	48 8b 53 08          	mov    0x8(%rbx),%rdx
    713d:	48 89 e9             	mov    %rbp,%rcx
    7140:	31 f6                	xor    %esi,%esi
    7142:	49 89 c0             	mov    %rax,%r8
    7145:	48 89 df             	mov    %rbx,%rdi
    7148:	e8 d3 e5 ff ff       	callq  5720 <_ZNSt7__cxx1112basic_stringIcSt11char_traitsIcESaIcEE10_M_replaceEmmPKcm@plt>
    714d:	4c 8d 6c 24 20       	lea    0x20(%rsp),%r13
    7152:	c6 44 24 2a 00       	movb   $0x0,0x2a(%rsp)
    7157:	b9 0a 00 00 00       	mov    $0xa,%ecx
    715c:	45 31 e4             	xor    %r12d,%r12d
    715f:	48 b8 70 79 62 69 6e 	movabs $0x3131646e69627970,%rax
    7166:	64 31 31 
    7169:	4c 89 6c 24 10       	mov    %r13,0x10(%rsp)
    716e:	4c 89 ee             	mov    %r13,%rsi
    7171:	48 89 44 24 20       	mov    %rax,0x20(%rsp)
    7176:	b8 3a 3a 00 00       	mov    $0x3a3a,%eax
    717b:	66 89 44 24 28       	mov    %ax,0x28(%rsp)
    7180:	48 c7 44 24 18 0a 00 	movq   $0xa,0x18(%rsp)
    7187:	00 00 
    7189:	eb 0f                	jmp    719a <_ZN8pybind116detail13clean_type_idERNSt7__cxx1112basic_stringIcSt11char_traitsIcESaIcEEE+0xaa>
    718b:	0f 1f 44 00 00       	nopl   0x0(%rax,%rax,1)
    7190:	48 85 c9             	test   %rcx,%rcx
    7193:	75 43                	jne    71d8 <_ZN8pybind116detail13clean_type_idERNSt7__cxx1112basic_stringIcSt11char_traitsIcESaIcEEE+0xe8>
    7195:	48 8b 74 24 10       	mov    0x10(%rsp),%rsi
    719a:	4c 89 e2             	mov    %r12,%rdx
    719d:	48 89 df             	mov    %rbx,%rdi
    71a0:	e8 9b e6 ff ff       	callq  5840 <_ZNKSt7__cxx1112basic_stringIcSt11char_traitsIcESaIcEE4findEPKcmm@plt>
    71a5:	49 89 c4             	mov    %rax,%r12
    71a8:	48 83 f8 ff          	cmp    $0xffffffffffffffff,%rax
    71ac:	74 4a                	je     71f8 <_ZN8pybind116detail13clean_type_idERNSt7__cxx1112basic_stringIcSt11char_traitsIcESaIcEEE+0x108>
    71ae:	48 8b 53 08          	mov    0x8(%rbx),%rdx
    71b2:	48 8b 4c 24 18       	mov    0x18(%rsp),%rcx
    71b7:	48 39 d0             	cmp    %rdx,%rax
    71ba:	77 73                	ja     722f <_ZN8pybind116detail13clean_type_idERNSt7__cxx1112basic_stringIcSt11char_traitsIcESaIcEEE+0x13f>
    71bc:	48 83 f9 ff          	cmp    $0xffffffffffffffff,%rcx
    71c0:	75 ce                	jne    7190 <_ZN8pybind116detail13clean_type_idERNSt7__cxx1112basic_stringIcSt11char_traitsIcESaIcEEE+0xa0>
    71c2:	48 89 43 08          	mov    %rax,0x8(%rbx)
    71c6:	48 8b 03             	mov    (%rbx),%rax
    71c9:	42 c6 04 20 00       	movb   $0x0,(%rax,%r12,1)
    71ce:	48 8b 4c 24 18       	mov    0x18(%rsp),%rcx
    71d3:	eb c0                	jmp    7195 <_ZN8pybind116detail13clean_type_idERNSt7__cxx1112basic_stringIcSt11char_traitsIcESaIcEEE+0xa5>
    71d5:	0f 1f 00             	nopl   (%rax)
    71d8:	48 29 c2             	sub    %rax,%rdx
    71db:	48 89 c6             	mov    %rax,%rsi
    71de:	48 89 df             	mov    %rbx,%rdi
    71e1:	48 39 ca             	cmp    %rcx,%rdx
    71e4:	48 0f 47 d1          	cmova  %rcx,%rdx
    71e8:	e8 83 e3 ff ff       	callq  5570 <_ZNSt7__cxx1112basic_stringIcSt11char_traitsIcESaIcEE8_M_eraseEmm@plt>
    71ed:	48 8b 4c 24 18       	mov    0x18(%rsp),%rcx
    71f2:	eb a1                	jmp    7195 <_ZN8pybind116detail13clean_type_idERNSt7__cxx1112basic_stringIcSt11char_traitsIcESaIcEEE+0xa5>
    71f4:	0f 1f 40 00          	nopl   0x0(%rax)
    71f8:	48 8b 7c 24 10       	mov    0x10(%rsp),%rdi
    71fd:	4c 39 ef             	cmp    %r13,%rdi
    7200:	74 05                	je     7207 <_ZN8pybind116detail13clean_type_idERNSt7__cxx1112basic_stringIcSt11char_traitsIcESaIcEEE+0x117>
    7202:	e8 89 e2 ff ff       	callq  5490 <_ZdlPv@plt>
    7207:	48 85 ed             	test   %rbp,%rbp
    720a:	74 08                	je     7214 <_ZN8pybind116detail13clean_type_idERNSt7__cxx1112basic_stringIcSt11char_traitsIcESaIcEEE+0x124>
    720c:	48 89 ef             	mov    %rbp,%rdi
    720f:	e8 6c e3 ff ff       	callq  5580 <free@plt>
    7214:	48 8b 44 24 38       	mov    0x38(%rsp),%rax
    7219:	64 48 33 04 25 28 00 	xor    %fs:0x28,%rax
    7220:	00 00 
    7222:	75 26                	jne    724a <_ZN8pybind116detail13clean_type_idERNSt7__cxx1112basic_stringIcSt11char_traitsIcESaIcEEE+0x15a>
    7224:	48 83 c4 48          	add    $0x48,%rsp
    7228:	5b                   	pop    %rbx
    7229:	5d                   	pop    %rbp
    722a:	41 5c                	pop    %r12
    722c:	41 5d                	pop    %r13
    722e:	c3                   	retq   
    722f:	48 89 d1             	mov    %rdx,%rcx
    7232:	48 8d 35 90 50 01 00 	lea    0x15090(%rip),%rsi        # 1c2c9 <_fini+0x11e5>
    7239:	48 89 c2             	mov    %rax,%rdx
    723c:	31 c0                	xor    %eax,%eax
    723e:	48 8d 3d 9b 50 01 00 	lea    0x1509b(%rip),%rdi        # 1c2e0 <_fini+0x11fc>
    7245:	e8 c6 e4 ff ff       	callq  5710 <_ZSt24__throw_out_of_range_fmtPKcz@plt>
    724a:	e8 d1 e2 ff ff       	callq  5520 <__stack_chk_fail@plt>
    724f:	49 89 c4             	mov    %rax,%r12
    7252:	eb 05                	jmp    7259 <_ZN8pybind116detail13clean_type_idERNSt7__cxx1112basic_stringIcSt11char_traitsIcESaIcEEE+0x169>
    7254:	49 89 c4             	mov    %rax,%r12
    7257:	eb 10                	jmp    7269 <_ZN8pybind116detail13clean_type_idERNSt7__cxx1112basic_stringIcSt11char_traitsIcESaIcEEE+0x179>
    7259:	48 89 ef             	mov    %rbp,%rdi
    725c:	e8 1f e3 ff ff       	callq  5580 <free@plt>
    7261:	4c 89 e7             	mov    %r12,%rdi
    7264:	e8 f7 e5 ff ff       	callq  5860 <_Unwind_Resume@plt>
    7269:	48 8b 7c 24 10       	mov    0x10(%rsp),%rdi
    726e:	4c 39 ef             	cmp    %r13,%rdi
    7271:	74 05                	je     7278 <_ZN8pybind116detail13clean_type_idERNSt7__cxx1112basic_stringIcSt11char_traitsIcESaIcEEE+0x188>
    7273:	e8 18 e2 ff ff       	callq  5490 <_ZdlPv@plt>
    7278:	48 85 ed             	test   %rbp,%rbp
    727b:	75 dc                	jne    7259 <_ZN8pybind116detail13clean_type_idERNSt7__cxx1112basic_stringIcSt11char_traitsIcESaIcEEE+0x169>
    727d:	eb e2                	jmp    7261 <_ZN8pybind116detail13clean_type_idERNSt7__cxx1112basic_stringIcSt11char_traitsIcESaIcEEE+0x171>
    727f:	90                   	nop

0000000000007280 <_ZN8pybind116detail8instance17deallocate_layoutEv>:
    7280:	f6 47 30 02          	testb  $0x2,0x30(%rdi)
    7284:	74 0a                	je     7290 <_ZN8pybind116detail8instance17deallocate_layoutEv+0x10>
    7286:	c3                   	retq   
    7287:	66 0f 1f 84 00 00 00 	nopw   0x0(%rax,%rax,1)
    728e:	00 00 
    7290:	48 8b 7f 10          	mov    0x10(%rdi),%rdi
    7294:	e9 c7 de ff ff       	jmpq   5160 <PyMem_Free@plt>
    7299:	0f 1f 80 00 00 00 00 	nopl   0x0(%rax)

00000000000072a0 <_ZN8pybind116detail11type_recordC1Ev>:
    72a0:	55                   	push   %rbp
    72a1:	66 0f ef c0          	pxor   %xmm0,%xmm0
    72a5:	53                   	push   %rbx
    72a6:	48 89 fb             	mov    %rdi,%rbx
    72a9:	48 83 ec 08          	sub    $0x8,%rsp
    72ad:	48 c7 47 10 00 00 00 	movq   $0x0,0x10(%rdi)
    72b4:	00 
    72b5:	48 c7 47 28 00 00 00 	movq   $0x0,0x28(%rdi)
    72bc:	00 
    72bd:	48 c7 47 40 00 00 00 	movq   $0x0,0x40(%rdi)
    72c4:	00 
    72c5:	0f 11 07             	movups %xmm0,(%rdi)
    72c8:	0f 11 47 18          	movups %xmm0,0x18(%rdi)
    72cc:	0f 11 47 30          	movups %xmm0,0x30(%rdi)
    72d0:	31 ff                	xor    %edi,%edi
    72d2:	e8 a9 e0 ff ff       	callq  5380 <PyList_New@plt>
    72d7:	48 89 43 48          	mov    %rax,0x48(%rbx)
    72db:	48 85 c0             	test   %rax,%rax
    72de:	74 1c                	je     72fc <_ZN8pybind116detail11type_recordC1Ev+0x5c>
    72e0:	0f b6 43 60          	movzbl 0x60(%rbx),%eax
    72e4:	66 0f ef c0          	pxor   %xmm0,%xmm0
    72e8:	0f 11 43 50          	movups %xmm0,0x50(%rbx)
    72ec:	83 e0 e0             	and    $0xffffffe0,%eax
    72ef:	83 c8 08             	or     $0x8,%eax
    72f2:	88 43 60             	mov    %al,0x60(%rbx)
    72f5:	48 83 c4 08          	add    $0x8,%rsp
    72f9:	5b                   	pop    %rbx
    72fa:	5d                   	pop    %rbp
    72fb:	c3                   	retq   
    72fc:	48 8d 3d 15 50 01 00 	lea    0x15015(%rip),%rdi        # 1c318 <_fini+0x1234>
    7303:	e8 78 e6 ff ff       	callq  5980 <_ZN8pybind1113pybind11_failEPKc>
    7308:	48 89 c5             	mov    %rax,%rbp
    730b:	48 8b 7b 48          	mov    0x48(%rbx),%rdi
    730f:	48 85 ff             	test   %rdi,%rdi
    7312:	74 06                	je     731a <_ZN8pybind116detail11type_recordC1Ev+0x7a>
    7314:	48 83 2f 01          	subq   $0x1,(%rdi)
    7318:	74 08                	je     7322 <_ZN8pybind116detail11type_recordC1Ev+0x82>
    731a:	48 89 ef             	mov    %rbp,%rdi
    731d:	e8 3e e5 ff ff       	callq  5860 <_Unwind_Resume@plt>
    7322:	48 8b 47 08          	mov    0x8(%rdi),%rax
    7326:	ff 50 30             	callq  *0x30(%rax)
    7329:	eb ef                	jmp    731a <_ZN8pybind116detail11type_recordC1Ev+0x7a>
    732b:	0f 1f 44 00 00       	nopl   0x0(%rax,%rax,1)

0000000000007330 <_ZN8pybind116detail13function_callD1Ev>:
    7330:	53                   	push   %rbx
    7331:	48 89 fb             	mov    %rdi,%rbx
    7334:	48 8b 7f 50          	mov    0x50(%rdi),%rdi
    7338:	48 85 ff             	test   %rdi,%rdi
    733b:	74 06                	je     7343 <_ZN8pybind116detail13function_callD1Ev+0x13>
    733d:	48 83 2f 01          	subq   $0x1,(%rdi)
    7341:	74 3d                	je     7380 <_ZN8pybind116detail13function_callD1Ev+0x50>
    7343:	48 8b 7b 48          	mov    0x48(%rbx),%rdi
    7347:	48 85 ff             	test   %rdi,%rdi
    734a:	74 06                	je     7352 <_ZN8pybind116detail13function_callD1Ev+0x22>
    734c:	48 83 2f 01          	subq   $0x1,(%rdi)
    7350:	74 1e                	je     7370 <_ZN8pybind116detail13function_callD1Ev+0x40>
    7352:	48 8b 7b 20          	mov    0x20(%rbx),%rdi
    7356:	48 85 ff             	test   %rdi,%rdi
    7359:	74 05                	je     7360 <_ZN8pybind116detail13function_callD1Ev+0x30>
    735b:	e8 30 e1 ff ff       	callq  5490 <_ZdlPv@plt>
    7360:	48 8b 7b 08          	mov    0x8(%rbx),%rdi
    7364:	48 85 ff             	test   %rdi,%rdi
    7367:	74 27                	je     7390 <_ZN8pybind116detail13function_callD1Ev+0x60>
    7369:	5b                   	pop    %rbx
    736a:	e9 21 e1 ff ff       	jmpq   5490 <_ZdlPv@plt>
    736f:	90                   	nop
    7370:	48 8b 47 08          	mov    0x8(%rdi),%rax
    7374:	ff 50 30             	callq  *0x30(%rax)
    7377:	eb d9                	jmp    7352 <_ZN8pybind116detail13function_callD1Ev+0x22>
    7379:	0f 1f 80 00 00 00 00 	nopl   0x0(%rax)
    7380:	48 8b 47 08          	mov    0x8(%rdi),%rax
    7384:	ff 50 30             	callq  *0x30(%rax)
    7387:	eb ba                	jmp    7343 <_ZN8pybind116detail13function_callD1Ev+0x13>
    7389:	0f 1f 80 00 00 00 00 	nopl   0x0(%rax)
    7390:	5b                   	pop    %rbx
    7391:	c3                   	retq   
    7392:	66 2e 0f 1f 84 00 00 	nopw   %cs:0x0(%rax,%rax,1)
    7399:	00 00 00 
    739c:	0f 1f 40 00          	nopl   0x0(%rax)

00000000000073a0 <_ZN8pybind116detail8accessorINS0_17accessor_policies8obj_attrEED1Ev>:
    73a0:	53                   	push   %rbx
    73a1:	48 89 fb             	mov    %rdi,%rbx
    73a4:	48 8b 7f 18          	mov    0x18(%rdi),%rdi
    73a8:	48 85 ff             	test   %rdi,%rdi
    73ab:	74 06                	je     73b3 <_ZN8pybind116detail8accessorINS0_17accessor_policies8obj_attrEED1Ev+0x13>
    73ad:	48 83 2f 01          	subq   $0x1,(%rdi)
    73b1:	74 25                	je     73d8 <_ZN8pybind116detail8accessorINS0_17accessor_policies8obj_attrEED1Ev+0x38>
    73b3:	48 8b 7b 10          	mov    0x10(%rbx),%rdi
    73b7:	48 85 ff             	test   %rdi,%rdi
    73ba:	74 06                	je     73c2 <_ZN8pybind116detail8accessorINS0_17accessor_policies8obj_attrEED1Ev+0x22>
    73bc:	48 83 2f 01          	subq   $0x1,(%rdi)
    73c0:	74 06                	je     73c8 <_ZN8pybind116detail8accessorINS0_17accessor_policies8obj_attrEED1Ev+0x28>
    73c2:	5b                   	pop    %rbx
    73c3:	c3                   	retq   
    73c4:	0f 1f 40 00          	nopl   0x0(%rax)
    73c8:	48 8b 47 08          	mov    0x8(%rdi),%rax
    73cc:	ff 50 30             	callq  *0x30(%rax)
    73cf:	5b                   	pop    %rbx
    73d0:	c3                   	retq   
    73d1:	0f 1f 80 00 00 00 00 	nopl   0x0(%rax)
    73d8:	48 8b 47 08          	mov    0x8(%rdi),%rax
    73dc:	ff 50 30             	callq  *0x30(%rax)
    73df:	eb d2                	jmp    73b3 <_ZN8pybind116detail8accessorINS0_17accessor_policies8obj_attrEED1Ev+0x13>
    73e1:	66 2e 0f 1f 84 00 00 	nopw   %cs:0x0(%rax,%rax,1)
    73e8:	00 00 00 
    73eb:	0f 1f 44 00 00       	nopl   0x0(%rax,%rax,1)

00000000000073f0 <_ZStplIcSt11char_traitsIcESaIcEENSt7__cxx1112basic_stringIT_T0_T1_EEPKS5_RKS8_>:
    73f0:	41 56                	push   %r14
    73f2:	41 55                	push   %r13
    73f4:	41 54                	push   %r12
    73f6:	49 89 fc             	mov    %rdi,%r12
    73f9:	48 89 f7             	mov    %rsi,%rdi
    73fc:	55                   	push   %rbp
    73fd:	4d 8d 74 24 10       	lea    0x10(%r12),%r14
    7402:	48 89 f5             	mov    %rsi,%rbp
    7405:	53                   	push   %rbx
    7406:	48 89 d3             	mov    %rdx,%rbx
    7409:	e8 c2 dd ff ff       	callq  51d0 <strlen@plt>
    740e:	41 c6 44 24 10 00    	movb   $0x0,0x10(%r12)
    7414:	4c 89 e7             	mov    %r12,%rdi
    7417:	49 c7 44 24 08 00 00 	movq   $0x0,0x8(%r12)
    741e:	00 00 
    7420:	48 8b 73 08          	mov    0x8(%rbx),%rsi
    7424:	49 89 c5             	mov    %rax,%r13
    7427:	4d 89 34 24          	mov    %r14,(%r12)
    742b:	48 01 c6             	add    %rax,%rsi
    742e:	e8 fd e2 ff ff       	callq  5730 <_ZNSt7__cxx1112basic_stringIcSt11char_traitsIcESaIcEE7reserveEm@plt>
    7433:	48 b8 ff ff ff ff ff 	movabs $0x3fffffffffffffff,%rax
    743a:	ff ff 3f 
    743d:	49 2b 44 24 08       	sub    0x8(%r12),%rax
    7442:	49 39 c5             	cmp    %rax,%r13
    7445:	77 29                	ja     7470 <_ZStplIcSt11char_traitsIcESaIcEENSt7__cxx1112basic_stringIT_T0_T1_EEPKS5_RKS8_+0x80>
    7447:	4c 89 ea             	mov    %r13,%rdx
    744a:	48 89 ee             	mov    %rbp,%rsi
    744d:	4c 89 e7             	mov    %r12,%rdi
    7450:	e8 bb dc ff ff       	callq  5110 <_ZNSt7__cxx1112basic_stringIcSt11char_traitsIcESaIcEE9_M_appendEPKcm@plt>
    7455:	48 8b 53 08          	mov    0x8(%rbx),%rdx
    7459:	48 8b 33             	mov    (%rbx),%rsi
    745c:	4c 89 e7             	mov    %r12,%rdi
    745f:	e8 ac dc ff ff       	callq  5110 <_ZNSt7__cxx1112basic_stringIcSt11char_traitsIcESaIcEE9_M_appendEPKcm@plt>
    7464:	5b                   	pop    %rbx
    7465:	4c 89 e0             	mov    %r12,%rax
    7468:	5d                   	pop    %rbp
    7469:	41 5c                	pop    %r12
    746b:	41 5d                	pop    %r13
    746d:	41 5e                	pop    %r14
    746f:	c3                   	retq   
    7470:	48 8d 3d 8e 4d 01 00 	lea    0x14d8e(%rip),%rdi        # 1c205 <_fini+0x1121>
    7477:	e8 c4 dd ff ff       	callq  5240 <_ZSt20__throw_length_errorPKc@plt>
    747c:	48 89 c5             	mov    %rax,%rbp
    747f:	49 8b 3c 24          	mov    (%r12),%rdi
    7483:	49 39 fe             	cmp    %rdi,%r14
    7486:	74 05                	je     748d <_ZStplIcSt11char_traitsIcESaIcEENSt7__cxx1112basic_stringIT_T0_T1_EEPKS5_RKS8_+0x9d>
    7488:	e8 03 e0 ff ff       	callq  5490 <_ZdlPv@plt>
    748d:	48 89 ef             	mov    %rbp,%rdi
    7490:	e8 cb e3 ff ff       	callq  5860 <_Unwind_Resume@plt>
    7495:	66 2e 0f 1f 84 00 00 	nopw   %cs:0x0(%rax,%rax,1)
    749c:	00 00 00 
    749f:	90                   	nop

00000000000074a0 <_ZStplIcSt11char_traitsIcESaIcEENSt7__cxx1112basic_stringIT_T0_T1_EEOS8_PKS5_>:
    74a0:	41 55                	push   %r13
    74a2:	49 89 d5             	mov    %rdx,%r13
    74a5:	41 54                	push   %r12
    74a7:	49 89 fc             	mov    %rdi,%r12
    74aa:	48 89 d7             	mov    %rdx,%rdi
    74ad:	55                   	push   %rbp
    74ae:	48 89 f5             	mov    %rsi,%rbp
    74b1:	e8 1a dd ff ff       	callq  51d0 <strlen@plt>
    74b6:	48 89 c2             	mov    %rax,%rdx
    74b9:	48 b8 ff ff ff ff ff 	movabs $0x3fffffffffffffff,%rax
    74c0:	ff ff 3f 
    74c3:	48 2b 45 08          	sub    0x8(%rbp),%rax
    74c7:	48 39 c2             	cmp    %rax,%rdx
    74ca:	77 61                	ja     752d <_ZStplIcSt11char_traitsIcESaIcEENSt7__cxx1112basic_stringIT_T0_T1_EEOS8_PKS5_+0x8d>
    74cc:	4c 89 ee             	mov    %r13,%rsi
    74cf:	48 89 ef             	mov    %rbp,%rdi
    74d2:	e8 39 dc ff ff       	callq  5110 <_ZNSt7__cxx1112basic_stringIcSt11char_traitsIcESaIcEE9_M_appendEPKcm@plt>
    74d7:	49 8d 54 24 10       	lea    0x10(%r12),%rdx
    74dc:	49 89 14 24          	mov    %rdx,(%r12)
    74e0:	48 8b 08             	mov    (%rax),%rcx
    74e3:	48 8d 50 10          	lea    0x10(%rax),%rdx
    74e7:	48 39 d1             	cmp    %rdx,%rcx
    74ea:	74 34                	je     7520 <_ZStplIcSt11char_traitsIcESaIcEENSt7__cxx1112basic_stringIT_T0_T1_EEOS8_PKS5_+0x80>
    74ec:	49 89 0c 24          	mov    %rcx,(%r12)
    74f0:	48 8b 48 10          	mov    0x10(%rax),%rcx
    74f4:	49 89 4c 24 10       	mov    %rcx,0x10(%r12)
    74f9:	48 8b 48 08          	mov    0x8(%rax),%rcx
    74fd:	48 89 10             	mov    %rdx,(%rax)
    7500:	48 c7 40 08 00 00 00 	movq   $0x0,0x8(%rax)
    7507:	00 
    7508:	49 89 4c 24 08       	mov    %rcx,0x8(%r12)
    750d:	c6 40 10 00          	movb   $0x0,0x10(%rax)
    7511:	4c 89 e0             	mov    %r12,%rax
    7514:	5d                   	pop    %rbp
    7515:	41 5c                	pop    %r12
    7517:	41 5d                	pop    %r13
    7519:	c3                   	retq   
    751a:	66 0f 1f 44 00 00    	nopw   0x0(%rax,%rax,1)
    7520:	f3 0f 6f 40 10       	movdqu 0x10(%rax),%xmm0
    7525:	41 0f 11 44 24 10    	movups %xmm0,0x10(%r12)
    752b:	eb cc                	jmp    74f9 <_ZStplIcSt11char_traitsIcESaIcEENSt7__cxx1112basic_stringIT_T0_T1_EEOS8_PKS5_+0x59>
    752d:	48 8d 3d d1 4c 01 00 	lea    0x14cd1(%rip),%rdi        # 1c205 <_fini+0x1121>
    7534:	e8 07 dd ff ff       	callq  5240 <_ZSt20__throw_length_errorPKc@plt>
    7539:	0f 1f 80 00 00 00 00 	nopl   0x0(%rax)

0000000000007540 <_ZStplIcSt11char_traitsIcESaIcEENSt7__cxx1112basic_stringIT_T0_T1_EEPKS5_OS8_>:
    7540:	41 55                	push   %r13
    7542:	49 89 f5             	mov    %rsi,%r13
    7545:	41 54                	push   %r12
    7547:	49 89 fc             	mov    %rdi,%r12
    754a:	48 89 f7             	mov    %rsi,%rdi
    754d:	55                   	push   %rbp
    754e:	48 89 d5             	mov    %rdx,%rbp
    7551:	e8 7a dc ff ff       	callq  51d0 <strlen@plt>
    7556:	4c 89 e9             	mov    %r13,%rcx
    7559:	31 d2                	xor    %edx,%edx
    755b:	31 f6                	xor    %esi,%esi
    755d:	49 89 c0             	mov    %rax,%r8
    7560:	48 89 ef             	mov    %rbp,%rdi
    7563:	e8 b8 e1 ff ff       	callq  5720 <_ZNSt7__cxx1112basic_stringIcSt11char_traitsIcESaIcEE10_M_replaceEmmPKcm@plt>
    7568:	49 8d 54 24 10       	lea    0x10(%r12),%rdx
    756d:	49 89 14 24          	mov    %rdx,(%r12)
    7571:	48 8b 08             	mov    (%rax),%rcx
    7574:	48 8d 50 10          	lea    0x10(%rax),%rdx
    7578:	48 39 d1             	cmp    %rdx,%rcx
    757b:	74 33                	je     75b0 <_ZStplIcSt11char_traitsIcESaIcEENSt7__cxx1112basic_stringIT_T0_T1_EEPKS5_OS8_+0x70>
    757d:	49 89 0c 24          	mov    %rcx,(%r12)
    7581:	48 8b 48 10          	mov    0x10(%rax),%rcx
    7585:	49 89 4c 24 10       	mov    %rcx,0x10(%r12)
    758a:	48 8b 48 08          	mov    0x8(%rax),%rcx
    758e:	48 89 10             	mov    %rdx,(%rax)
    7591:	48 c7 40 08 00 00 00 	movq   $0x0,0x8(%rax)
    7598:	00 
    7599:	49 89 4c 24 08       	mov    %rcx,0x8(%r12)
    759e:	c6 40 10 00          	movb   $0x0,0x10(%rax)
    75a2:	4c 89 e0             	mov    %r12,%rax
    75a5:	5d                   	pop    %rbp
    75a6:	41 5c                	pop    %r12
    75a8:	41 5d                	pop    %r13
    75aa:	c3                   	retq   
    75ab:	0f 1f 44 00 00       	nopl   0x0(%rax,%rax,1)
    75b0:	f3 0f 6f 40 10       	movdqu 0x10(%rax),%xmm0
    75b5:	41 0f 11 44 24 10    	movups %xmm0,0x10(%r12)
    75bb:	eb cd                	jmp    758a <_ZStplIcSt11char_traitsIcESaIcEENSt7__cxx1112basic_stringIT_T0_T1_EEPKS5_OS8_+0x4a>
    75bd:	0f 1f 00             	nopl   (%rax)

00000000000075c0 <_ZStplIcSt11char_traitsIcESaIcEENSt7__cxx1112basic_stringIT_T0_T1_EEOS8_S9_>:
    75c0:	41 54                	push   %r12
    75c2:	49 89 d1             	mov    %rdx,%r9
    75c5:	4c 8b 46 08          	mov    0x8(%rsi),%r8
    75c9:	49 89 fc             	mov    %rdi,%r12
    75cc:	48 8b 52 08          	mov    0x8(%rdx),%rdx
    75d0:	48 8b 0e             	mov    (%rsi),%rcx
    75d3:	48 89 f7             	mov    %rsi,%rdi
    75d6:	48 83 c6 10          	add    $0x10,%rsi
    75da:	49 8d 04 10          	lea    (%r8,%rdx,1),%rax
    75de:	48 39 f1             	cmp    %rsi,%rcx
    75e1:	0f 84 89 00 00 00    	je     7670 <_ZStplIcSt11char_traitsIcESaIcEENSt7__cxx1112basic_stringIT_T0_T1_EEOS8_S9_+0xb0>
    75e7:	4c 8b 57 10          	mov    0x10(%rdi),%r10
    75eb:	49 8b 31             	mov    (%r9),%rsi
    75ee:	4c 39 d0             	cmp    %r10,%rax
    75f1:	76 16                	jbe    7609 <_ZStplIcSt11char_traitsIcESaIcEENSt7__cxx1112basic_stringIT_T0_T1_EEOS8_S9_+0x49>
    75f3:	4d 8d 51 10          	lea    0x10(%r9),%r10
    75f7:	4c 39 d6             	cmp    %r10,%rsi
    75fa:	0f 84 80 00 00 00    	je     7680 <_ZStplIcSt11char_traitsIcESaIcEENSt7__cxx1112basic_stringIT_T0_T1_EEOS8_S9_+0xc0>
    7600:	4d 8b 51 10          	mov    0x10(%r9),%r10
    7604:	4c 39 d0             	cmp    %r10,%rax
    7607:	76 47                	jbe    7650 <_ZStplIcSt11char_traitsIcESaIcEENSt7__cxx1112basic_stringIT_T0_T1_EEOS8_S9_+0x90>
    7609:	e8 02 db ff ff       	callq  5110 <_ZNSt7__cxx1112basic_stringIcSt11char_traitsIcESaIcEE9_M_appendEPKcm@plt>
    760e:	49 8d 54 24 10       	lea    0x10(%r12),%rdx
    7613:	49 89 14 24          	mov    %rdx,(%r12)
    7617:	48 8b 08             	mov    (%rax),%rcx
    761a:	48 8d 50 10          	lea    0x10(%rax),%rdx
    761e:	48 39 d1             	cmp    %rdx,%rcx
    7621:	74 3d                	je     7660 <_ZStplIcSt11char_traitsIcESaIcEENSt7__cxx1112basic_stringIT_T0_T1_EEOS8_S9_+0xa0>
    7623:	49 89 0c 24          	mov    %rcx,(%r12)
    7627:	48 8b 48 10          	mov    0x10(%rax),%rcx
    762b:	49 89 4c 24 10       	mov    %rcx,0x10(%r12)
    7630:	48 8b 48 08          	mov    0x8(%rax),%rcx
    7634:	48 89 10             	mov    %rdx,(%rax)
    7637:	48 c7 40 08 00 00 00 	movq   $0x0,0x8(%rax)
    763e:	00 
    763f:	49 89 4c 24 08       	mov    %rcx,0x8(%r12)
    7644:	c6 40 10 00          	movb   $0x0,0x10(%rax)
    7648:	4c 89 e0             	mov    %r12,%rax
    764b:	41 5c                	pop    %r12
    764d:	c3                   	retq   
    764e:	66 90                	xchg   %ax,%ax
    7650:	31 d2                	xor    %edx,%edx
    7652:	31 f6                	xor    %esi,%esi
    7654:	4c 89 cf             	mov    %r9,%rdi
    7657:	e8 c4 e0 ff ff       	callq  5720 <_ZNSt7__cxx1112basic_stringIcSt11char_traitsIcESaIcEE10_M_replaceEmmPKcm@plt>
    765c:	eb b0                	jmp    760e <_ZStplIcSt11char_traitsIcESaIcEENSt7__cxx1112basic_stringIT_T0_T1_EEOS8_S9_+0x4e>
    765e:	66 90                	xchg   %ax,%ax
    7660:	f3 0f 6f 40 10       	movdqu 0x10(%rax),%xmm0
    7665:	41 0f 11 44 24 10    	movups %xmm0,0x10(%r12)
    766b:	eb c3                	jmp    7630 <_ZStplIcSt11char_traitsIcESaIcEENSt7__cxx1112basic_stringIT_T0_T1_EEOS8_S9_+0x70>
    766d:	0f 1f 00             	nopl   (%rax)
    7670:	41 ba 0f 00 00 00    	mov    $0xf,%r10d
    7676:	e9 70 ff ff ff       	jmpq   75eb <_ZStplIcSt11char_traitsIcESaIcEENSt7__cxx1112basic_stringIT_T0_T1_EEOS8_S9_+0x2b>
    767b:	0f 1f 44 00 00       	nopl   0x0(%rax,%rax,1)
    7680:	41 ba 0f 00 00 00    	mov    $0xf,%r10d
    7686:	e9 79 ff ff ff       	jmpq   7604 <_ZStplIcSt11char_traitsIcESaIcEENSt7__cxx1112basic_stringIT_T0_T1_EEOS8_S9_+0x44>
    768b:	0f 1f 44 00 00       	nopl   0x0(%rax,%rax,1)

0000000000007690 <_ZNSt6vectorIN8pybind116detail13function_callESaIS2_EED1Ev>:
    7690:	41 54                	push   %r12
    7692:	49 89 fc             	mov    %rdi,%r12
    7695:	55                   	push   %rbp
    7696:	53                   	push   %rbx
    7697:	48 8b 5f 08          	mov    0x8(%rdi),%rbx
    769b:	48 8b 2f             	mov    (%rdi),%rbp
    769e:	48 39 eb             	cmp    %rbp,%rbx
    76a1:	74 5a                	je     76fd <_ZNSt6vectorIN8pybind116detail13function_callESaIS2_EED1Ev+0x6d>
    76a3:	0f 1f 44 00 00       	nopl   0x0(%rax,%rax,1)
    76a8:	48 8b 7d 50          	mov    0x50(%rbp),%rdi
    76ac:	48 85 ff             	test   %rdi,%rdi
    76af:	74 0d                	je     76be <_ZNSt6vectorIN8pybind116detail13function_callESaIS2_EED1Ev+0x2e>
    76b1:	48 83 2f 01          	subq   $0x1,(%rdi)
    76b5:	75 07                	jne    76be <_ZNSt6vectorIN8pybind116detail13function_callESaIS2_EED1Ev+0x2e>
    76b7:	48 8b 47 08          	mov    0x8(%rdi),%rax
    76bb:	ff 50 30             	callq  *0x30(%rax)
    76be:	48 8b 7d 48          	mov    0x48(%rbp),%rdi
    76c2:	48 85 ff             	test   %rdi,%rdi
    76c5:	74 0d                	je     76d4 <_ZNSt6vectorIN8pybind116detail13function_callESaIS2_EED1Ev+0x44>
    76c7:	48 83 2f 01          	subq   $0x1,(%rdi)
    76cb:	75 07                	jne    76d4 <_ZNSt6vectorIN8pybind116detail13function_callESaIS2_EED1Ev+0x44>
    76cd:	48 8b 47 08          	mov    0x8(%rdi),%rax
    76d1:	ff 50 30             	callq  *0x30(%rax)
    76d4:	48 8b 7d 20          	mov    0x20(%rbp),%rdi
    76d8:	48 85 ff             	test   %rdi,%rdi
    76db:	74 05                	je     76e2 <_ZNSt6vectorIN8pybind116detail13function_callESaIS2_EED1Ev+0x52>
    76dd:	e8 ae dd ff ff       	callq  5490 <_ZdlPv@plt>
    76e2:	48 8b 7d 08          	mov    0x8(%rbp),%rdi
    76e6:	48 85 ff             	test   %rdi,%rdi
    76e9:	74 25                	je     7710 <_ZNSt6vectorIN8pybind116detail13function_callESaIS2_EED1Ev+0x80>
    76eb:	e8 a0 dd ff ff       	callq  5490 <_ZdlPv@plt>
    76f0:	48 83 c5 68          	add    $0x68,%rbp
    76f4:	48 39 eb             	cmp    %rbp,%rbx
    76f7:	75 af                	jne    76a8 <_ZNSt6vectorIN8pybind116detail13function_callESaIS2_EED1Ev+0x18>
    76f9:	49 8b 2c 24          	mov    (%r12),%rbp
    76fd:	48 85 ed             	test   %rbp,%rbp
    7700:	74 1e                	je     7720 <_ZNSt6vectorIN8pybind116detail13function_callESaIS2_EED1Ev+0x90>
    7702:	5b                   	pop    %rbx
    7703:	48 89 ef             	mov    %rbp,%rdi
    7706:	5d                   	pop    %rbp
    7707:	41 5c                	pop    %r12
    7709:	e9 82 dd ff ff       	jmpq   5490 <_ZdlPv@plt>
    770e:	66 90                	xchg   %ax,%ax
    7710:	48 83 c5 68          	add    $0x68,%rbp
    7714:	48 39 eb             	cmp    %rbp,%rbx
    7717:	75 8f                	jne    76a8 <_ZNSt6vectorIN8pybind116detail13function_callESaIS2_EED1Ev+0x18>
    7719:	eb de                	jmp    76f9 <_ZNSt6vectorIN8pybind116detail13function_callESaIS2_EED1Ev+0x69>
    771b:	0f 1f 44 00 00       	nopl   0x0(%rax,%rax,1)
    7720:	5b                   	pop    %rbx
    7721:	5d                   	pop    %rbp
    7722:	41 5c                	pop    %r12
    7724:	c3                   	retq   
    7725:	66 2e 0f 1f 84 00 00 	nopw   %cs:0x0(%rax,%rax,1)
    772c:	00 00 00 
    772f:	90                   	nop

0000000000007730 <_ZNSt6vectorIPN8pybind116detail9type_infoESaIS3_EE17_M_realloc_insertIJRKS3_EEEvN9__gnu_cxx17__normal_iteratorIPS3_S5_EEDpOT_>:
    7730:	48 b9 ff ff ff ff ff 	movabs $0xfffffffffffffff,%rcx
    7737:	ff ff 0f 
    773a:	41 57                	push   %r15
    773c:	41 56                	push   %r14
    773e:	41 55                	push   %r13
    7740:	41 54                	push   %r12
    7742:	55                   	push   %rbp
    7743:	53                   	push   %rbx
    7744:	48 83 ec 18          	sub    $0x18,%rsp
    7748:	4c 8b 67 08          	mov    0x8(%rdi),%r12
    774c:	4c 8b 07             	mov    (%rdi),%r8
    774f:	4c 89 e0             	mov    %r12,%rax
    7752:	4c 29 c0             	sub    %r8,%rax
    7755:	48 c1 f8 03          	sar    $0x3,%rax
    7759:	48 39 c8             	cmp    %rcx,%rax
    775c:	0f 84 11 01 00 00    	je     7873 <_ZNSt6vectorIPN8pybind116detail9type_infoESaIS3_EE17_M_realloc_insertIJRKS3_EEEvN9__gnu_cxx17__normal_iteratorIPS3_S5_EEDpOT_+0x143>
    7762:	49 89 d7             	mov    %rdx,%r15
    7765:	48 89 f2             	mov    %rsi,%rdx
    7768:	48 89 fd             	mov    %rdi,%rbp
    776b:	49 89 f5             	mov    %rsi,%r13
    776e:	4c 29 c2             	sub    %r8,%rdx
    7771:	48 85 c0             	test   %rax,%rax
    7774:	0f 84 ee 00 00 00    	je     7868 <_ZNSt6vectorIPN8pybind116detail9type_infoESaIS3_EE17_M_realloc_insertIJRKS3_EEEvN9__gnu_cxx17__normal_iteratorIPS3_S5_EEDpOT_+0x138>
    777a:	49 be f8 ff ff ff ff 	movabs $0x7ffffffffffffff8,%r14
    7781:	ff ff 7f 
    7784:	48 8d 34 00          	lea    (%rax,%rax,1),%rsi
    7788:	48 39 f0             	cmp    %rsi,%rax
    778b:	0f 86 97 00 00 00    	jbe    7828 <_ZNSt6vectorIPN8pybind116detail9type_infoESaIS3_EE17_M_realloc_insertIJRKS3_EEEvN9__gnu_cxx17__normal_iteratorIPS3_S5_EEDpOT_+0xf8>
    7791:	4c 89 f7             	mov    %r14,%rdi
    7794:	48 89 54 24 08       	mov    %rdx,0x8(%rsp)
    7799:	4c 89 04 24          	mov    %r8,(%rsp)
    779d:	e8 0e dd ff ff       	callq  54b0 <_Znwm@plt>
    77a2:	4c 8b 04 24          	mov    (%rsp),%r8
    77a6:	48 8b 54 24 08       	mov    0x8(%rsp),%rdx
    77ab:	48 89 c3             	mov    %rax,%rbx
    77ae:	49 01 c6             	add    %rax,%r14
    77b1:	49 8b 07             	mov    (%r15),%rax
    77b4:	4d 29 ec             	sub    %r13,%r12
    77b7:	4c 8d 7c 13 08       	lea    0x8(%rbx,%rdx,1),%r15
    77bc:	48 89 04 13          	mov    %rax,(%rbx,%rdx,1)
    77c0:	4b 8d 04 27          	lea    (%r15,%r12,1),%rax
    77c4:	48 89 04 24          	mov    %rax,(%rsp)
    77c8:	48 85 d2             	test   %rdx,%rdx
    77cb:	7f 33                	jg     7800 <_ZNSt6vectorIPN8pybind116detail9type_infoESaIS3_EE17_M_realloc_insertIJRKS3_EEEvN9__gnu_cxx17__normal_iteratorIPS3_S5_EEDpOT_+0xd0>
    77cd:	4d 85 e4             	test   %r12,%r12
    77d0:	7f 6e                	jg     7840 <_ZNSt6vectorIPN8pybind116detail9type_infoESaIS3_EE17_M_realloc_insertIJRKS3_EEEvN9__gnu_cxx17__normal_iteratorIPS3_S5_EEDpOT_+0x110>
    77d2:	4d 85 c0             	test   %r8,%r8
    77d5:	75 43                	jne    781a <_ZNSt6vectorIPN8pybind116detail9type_infoESaIS3_EE17_M_realloc_insertIJRKS3_EEEvN9__gnu_cxx17__normal_iteratorIPS3_S5_EEDpOT_+0xea>
    77d7:	66 48 0f 6e c3       	movq   %rbx,%xmm0
    77dc:	4c 89 75 10          	mov    %r14,0x10(%rbp)
    77e0:	0f 16 04 24          	movhps (%rsp),%xmm0
    77e4:	0f 11 45 00          	movups %xmm0,0x0(%rbp)
    77e8:	48 83 c4 18          	add    $0x18,%rsp
    77ec:	5b                   	pop    %rbx
    77ed:	5d                   	pop    %rbp
    77ee:	41 5c                	pop    %r12
    77f0:	41 5d                	pop    %r13
    77f2:	41 5e                	pop    %r14
    77f4:	41 5f                	pop    %r15
    77f6:	c3                   	retq   
    77f7:	66 0f 1f 84 00 00 00 	nopw   0x0(%rax,%rax,1)
    77fe:	00 00 
    7800:	4c 89 c6             	mov    %r8,%rsi
    7803:	48 89 df             	mov    %rbx,%rdi
    7806:	4c 89 44 24 08       	mov    %r8,0x8(%rsp)
    780b:	e8 90 df ff ff       	callq  57a0 <memmove@plt>
    7810:	4d 85 e4             	test   %r12,%r12
    7813:	4c 8b 44 24 08       	mov    0x8(%rsp),%r8
    7818:	7f 26                	jg     7840 <_ZNSt6vectorIPN8pybind116detail9type_infoESaIS3_EE17_M_realloc_insertIJRKS3_EEEvN9__gnu_cxx17__normal_iteratorIPS3_S5_EEDpOT_+0x110>
    781a:	4c 89 c7             	mov    %r8,%rdi
    781d:	e8 6e dc ff ff       	callq  5490 <_ZdlPv@plt>
    7822:	eb b3                	jmp    77d7 <_ZNSt6vectorIPN8pybind116detail9type_infoESaIS3_EE17_M_realloc_insertIJRKS3_EEEvN9__gnu_cxx17__normal_iteratorIPS3_S5_EEDpOT_+0xa7>
    7824:	0f 1f 40 00          	nopl   0x0(%rax)
    7828:	48 85 f6             	test   %rsi,%rsi
    782b:	75 52                	jne    787f <_ZNSt6vectorIPN8pybind116detail9type_infoESaIS3_EE17_M_realloc_insertIJRKS3_EEEvN9__gnu_cxx17__normal_iteratorIPS3_S5_EEDpOT_+0x14f>
    782d:	45 31 f6             	xor    %r14d,%r14d
    7830:	31 db                	xor    %ebx,%ebx
    7832:	e9 7a ff ff ff       	jmpq   77b1 <_ZNSt6vectorIPN8pybind116detail9type_infoESaIS3_EE17_M_realloc_insertIJRKS3_EEEvN9__gnu_cxx17__normal_iteratorIPS3_S5_EEDpOT_+0x81>
    7837:	66 0f 1f 84 00 00 00 	nopw   0x0(%rax,%rax,1)
    783e:	00 00 
    7840:	4c 89 e2             	mov    %r12,%rdx
    7843:	4c 89 ee             	mov    %r13,%rsi
    7846:	4c 89 ff             	mov    %r15,%rdi
    7849:	4c 89 44 24 08       	mov    %r8,0x8(%rsp)
    784e:	e8 3d db ff ff       	callq  5390 <memcpy@plt>
    7853:	4c 8b 44 24 08       	mov    0x8(%rsp),%r8
    7858:	4d 85 c0             	test   %r8,%r8
    785b:	0f 84 76 ff ff ff    	je     77d7 <_ZNSt6vectorIPN8pybind116detail9type_infoESaIS3_EE17_M_realloc_insertIJRKS3_EEEvN9__gnu_cxx17__normal_iteratorIPS3_S5_EEDpOT_+0xa7>
    7861:	eb b7                	jmp    781a <_ZNSt6vectorIPN8pybind116detail9type_infoESaIS3_EE17_M_realloc_insertIJRKS3_EEEvN9__gnu_cxx17__normal_iteratorIPS3_S5_EEDpOT_+0xea>
    7863:	0f 1f 44 00 00       	nopl   0x0(%rax,%rax,1)
    7868:	41 be 08 00 00 00    	mov    $0x8,%r14d
    786e:	e9 1e ff ff ff       	jmpq   7791 <_ZNSt6vectorIPN8pybind116detail9type_infoESaIS3_EE17_M_realloc_insertIJRKS3_EEEvN9__gnu_cxx17__normal_iteratorIPS3_S5_EEDpOT_+0x61>
    7873:	48 8d 3d be 4a 01 00 	lea    0x14abe(%rip),%rdi        # 1c338 <_fini+0x1254>
    787a:	e8 c1 d9 ff ff       	callq  5240 <_ZSt20__throw_length_errorPKc@plt>
    787f:	48 39 ce             	cmp    %rcx,%rsi
    7882:	48 0f 46 ce          	cmovbe %rsi,%rcx
    7886:	49 89 ce             	mov    %rcx,%r14
    7889:	49 c1 e6 03          	shl    $0x3,%r14
    788d:	e9 ff fe ff ff       	jmpq   7791 <_ZNSt6vectorIPN8pybind116detail9type_infoESaIS3_EE17_M_realloc_insertIJRKS3_EEEvN9__gnu_cxx17__normal_iteratorIPS3_S5_EEDpOT_+0x61>
    7892:	66 2e 0f 1f 84 00 00 	nopw   %cs:0x0(%rax,%rax,1)
    7899:	00 00 00 
    789c:	0f 1f 40 00          	nopl   0x0(%rax)

00000000000078a0 <_ZNSt10_HashtableIPKvSt4pairIKS1_PN8pybind116detail8instanceEESaIS8_ENSt8__detail10_Select1stESt8equal_toIS1_ESt4hashIS1_ENSA_18_Mod_range_hashingENSA_20_Default_ranged_hashENSA_20_Prime_rehash_policyENSA_17_Hashtable_traitsILb0ELb0ELb0EEEE11equal_rangeERS3_>:
    78a0:	4c 8b 0e             	mov    (%rsi),%r9
    78a3:	48 8b 77 08          	mov    0x8(%rdi),%rsi
    78a7:	31 d2                	xor    %edx,%edx
    78a9:	4c 89 c8             	mov    %r9,%rax
    78ac:	48 f7 f6             	div    %rsi
    78af:	48 8b 07             	mov    (%rdi),%rax
    78b2:	48 8b 04 d0          	mov    (%rax,%rdx,8),%rax
    78b6:	49 89 d2             	mov    %rdx,%r10
    78b9:	48 85 c0             	test   %rax,%rax
    78bc:	74 6a                	je     7928 <_ZNSt10_HashtableIPKvSt4pairIKS1_PN8pybind116detail8instanceEESaIS8_ENSt8__detail10_Select1stESt8equal_toIS1_ESt4hashIS1_ENSA_18_Mod_range_hashingENSA_20_Default_ranged_hashENSA_20_Prime_rehash_policyENSA_17_Hashtable_traitsILb0ELb0ELb0EEEE11equal_rangeERS3_+0x88>
    78be:	48 8b 08             	mov    (%rax),%rcx
    78c1:	48 8b 79 08          	mov    0x8(%rcx),%rdi
    78c5:	eb 22                	jmp    78e9 <_ZNSt10_HashtableIPKvSt4pairIKS1_PN8pybind116detail8instanceEESaIS8_ENSt8__detail10_Select1stESt8equal_toIS1_ESt4hashIS1_ENSA_18_Mod_range_hashingENSA_20_Default_ranged_hashENSA_20_Prime_rehash_policyENSA_17_Hashtable_traitsILb0ELb0ELb0EEEE11equal_rangeERS3_+0x49>
    78c7:	66 0f 1f 84 00 00 00 	nopw   0x0(%rax,%rax,1)
    78ce:	00 00 
    78d0:	48 8b 09             	mov    (%rcx),%rcx
    78d3:	48 85 c9             	test   %rcx,%rcx
    78d6:	74 50                	je     7928 <_ZNSt10_HashtableIPKvSt4pairIKS1_PN8pybind116detail8instanceEESaIS8_ENSt8__detail10_Select1stESt8equal_toIS1_ESt4hashIS1_ENSA_18_Mod_range_hashingENSA_20_Default_ranged_hashENSA_20_Prime_rehash_policyENSA_17_Hashtable_traitsILb0ELb0ELb0EEEE11equal_rangeERS3_+0x88>
    78d8:	48 8b 79 08          	mov    0x8(%rcx),%rdi
    78dc:	31 d2                	xor    %edx,%edx
    78de:	48 89 f8             	mov    %rdi,%rax
    78e1:	48 f7 f6             	div    %rsi
    78e4:	49 39 d2             	cmp    %rdx,%r10
    78e7:	75 3f                	jne    7928 <_ZNSt10_HashtableIPKvSt4pairIKS1_PN8pybind116detail8instanceEESaIS8_ENSt8__detail10_Select1stESt8equal_toIS1_ESt4hashIS1_ENSA_18_Mod_range_hashingENSA_20_Default_ranged_hashENSA_20_Prime_rehash_policyENSA_17_Hashtable_traitsILb0ELb0ELb0EEEE11equal_rangeERS3_+0x88>
    78e9:	49 39 f9             	cmp    %rdi,%r9
    78ec:	75 e2                	jne    78d0 <_ZNSt10_HashtableIPKvSt4pairIKS1_PN8pybind116detail8instanceEESaIS8_ENSt8__detail10_Select1stESt8equal_toIS1_ESt4hashIS1_ENSA_18_Mod_range_hashingENSA_20_Default_ranged_hashENSA_20_Prime_rehash_policyENSA_17_Hashtable_traitsILb0ELb0ELb0EEEE11equal_rangeERS3_+0x30>
    78ee:	48 8b 39             	mov    (%rcx),%rdi
    78f1:	48 85 ff             	test   %rdi,%rdi
    78f4:	75 17                	jne    790d <_ZNSt10_HashtableIPKvSt4pairIKS1_PN8pybind116detail8instanceEESaIS8_ENSt8__detail10_Select1stESt8equal_toIS1_ESt4hashIS1_ENSA_18_Mod_range_hashingENSA_20_Default_ranged_hashENSA_20_Prime_rehash_policyENSA_17_Hashtable_traitsILb0ELb0ELb0EEEE11equal_rangeERS3_+0x6d>
    78f6:	eb 26                	jmp    791e <_ZNSt10_HashtableIPKvSt4pairIKS1_PN8pybind116detail8instanceEESaIS8_ENSt8__detail10_Select1stESt8equal_toIS1_ESt4hashIS1_ENSA_18_Mod_range_hashingENSA_20_Default_ranged_hashENSA_20_Prime_rehash_policyENSA_17_Hashtable_traitsILb0ELb0ELb0EEEE11equal_rangeERS3_+0x7e>
    78f8:	0f 1f 84 00 00 00 00 	nopl   0x0(%rax,%rax,1)
    78ff:	00 
    7900:	4d 39 c8             	cmp    %r9,%r8
    7903:	75 19                	jne    791e <_ZNSt10_HashtableIPKvSt4pairIKS1_PN8pybind116detail8instanceEESaIS8_ENSt8__detail10_Select1stESt8equal_toIS1_ESt4hashIS1_ENSA_18_Mod_range_hashingENSA_20_Default_ranged_hashENSA_20_Prime_rehash_policyENSA_17_Hashtable_traitsILb0ELb0ELb0EEEE11equal_rangeERS3_+0x7e>
    7905:	48 8b 3f             	mov    (%rdi),%rdi
    7908:	48 85 ff             	test   %rdi,%rdi
    790b:	74 11                	je     791e <_ZNSt10_HashtableIPKvSt4pairIKS1_PN8pybind116detail8instanceEESaIS8_ENSt8__detail10_Select1stESt8equal_toIS1_ESt4hashIS1_ENSA_18_Mod_range_hashingENSA_20_Default_ranged_hashENSA_20_Prime_rehash_policyENSA_17_Hashtable_traitsILb0ELb0ELb0EEEE11equal_rangeERS3_+0x7e>
    790d:	4c 8b 47 08          	mov    0x8(%rdi),%r8
    7911:	31 d2                	xor    %edx,%edx
    7913:	4c 89 c0             	mov    %r8,%rax
    7916:	48 f7 f6             	div    %rsi
    7919:	4c 39 d2             	cmp    %r10,%rdx
    791c:	74 e2                	je     7900 <_ZNSt10_HashtableIPKvSt4pairIKS1_PN8pybind116detail8instanceEESaIS8_ENSt8__detail10_Select1stESt8equal_toIS1_ESt4hashIS1_ENSA_18_Mod_range_hashingENSA_20_Default_ranged_hashENSA_20_Prime_rehash_policyENSA_17_Hashtable_traitsILb0ELb0ELb0EEEE11equal_rangeERS3_+0x60>
    791e:	48 89 c8             	mov    %rcx,%rax
    7921:	48 89 fa             	mov    %rdi,%rdx
    7924:	c3                   	retq   
    7925:	0f 1f 00             	nopl   (%rax)
    7928:	31 c0                	xor    %eax,%eax
    792a:	31 d2                	xor    %edx,%edx
    792c:	c3                   	retq   
    792d:	0f 1f 00             	nopl   (%rax)

0000000000007930 <_ZNSt13_Bvector_baseISaIbEE13_M_deallocateEv>:
    7930:	53                   	push   %rbx
    7931:	48 89 fb             	mov    %rdi,%rbx
    7934:	48 8b 3f             	mov    (%rdi),%rdi
    7937:	48 85 ff             	test   %rdi,%rdi
    793a:	74 2a                	je     7966 <_ZNSt13_Bvector_baseISaIbEE13_M_deallocateEv+0x36>
    793c:	e8 4f db ff ff       	callq  5490 <_ZdlPv@plt>
    7941:	48 c7 43 10 00 00 00 	movq   $0x0,0x10(%rbx)
    7948:	00 
    7949:	c7 43 18 00 00 00 00 	movl   $0x0,0x18(%rbx)
    7950:	48 c7 03 00 00 00 00 	movq   $0x0,(%rbx)
    7957:	c7 43 08 00 00 00 00 	movl   $0x0,0x8(%rbx)
    795e:	48 c7 43 20 00 00 00 	movq   $0x0,0x20(%rbx)
    7965:	00 
    7966:	5b                   	pop    %rbx
    7967:	c3                   	retq   
    7968:	0f 1f 84 00 00 00 00 	nopl   0x0(%rax,%rax,1)
    796f:	00 

0000000000007970 <_ZNSt6vectorIbSaIbEE13_M_insert_auxESt13_Bit_iteratorb>:
    7970:	41 57                	push   %r15
    7972:	41 56                	push   %r14
    7974:	41 55                	push   %r13
    7976:	41 54                	push   %r12
    7978:	49 89 f4             	mov    %rsi,%r12
    797b:	55                   	push   %rbp
    797c:	48 89 fd             	mov    %rdi,%rbp
    797f:	53                   	push   %rbx
    7980:	48 89 d3             	mov    %rdx,%rbx
    7983:	48 83 ec 38          	sub    $0x38,%rsp
    7987:	48 8b 7f 10          	mov    0x10(%rdi),%rdi
    798b:	8b 45 18             	mov    0x18(%rbp),%eax
    798e:	89 4c 24 08          	mov    %ecx,0x8(%rsp)
    7992:	48 89 74 24 20       	mov    %rsi,0x20(%rsp)
    7997:	48 89 54 24 28       	mov    %rdx,0x28(%rsp)
    799c:	48 3b 7d 20          	cmp    0x20(%rbp),%rdi
    79a0:	0f 84 2a 01 00 00    	je     7ad0 <_ZNSt6vectorIbSaIbEE13_M_insert_auxESt13_Bit_iteratorb+0x160>
    79a6:	48 8d 70 01          	lea    0x1(%rax),%rsi
    79aa:	49 89 c2             	mov    %rax,%r10
    79ad:	49 89 fb             	mov    %rdi,%r11
    79b0:	41 be 01 00 00 00    	mov    $0x1,%r14d
    79b6:	49 bf 00 00 00 00 00 	movabs $0x8000000000000000,%r15
    79bd:	00 00 80 
    79c0:	48 89 f2             	mov    %rsi,%rdx
    79c3:	45 89 d0             	mov    %r10d,%r8d
    79c6:	83 e6 3f             	and    $0x3f,%esi
    79c9:	48 c1 fa 06          	sar    $0x6,%rdx
    79cd:	4c 8d 0c d7          	lea    (%rdi,%rdx,8),%r9
    79d1:	48 89 fa             	mov    %rdi,%rdx
    79d4:	4c 29 e2             	sub    %r12,%rdx
    79d7:	48 8d 04 d0          	lea    (%rax,%rdx,8),%rax
    79db:	89 da                	mov    %ebx,%edx
    79dd:	48 29 d0             	sub    %rdx,%rax
    79e0:	48 85 c0             	test   %rax,%rax
    79e3:	7e 40                	jle    7a25 <_ZNSt6vectorIbSaIbEE13_M_insert_auxESt13_Bit_iteratorb+0xb5>
    79e5:	0f 1f 00             	nopl   (%rax)
    79e8:	45 85 c0             	test   %r8d,%r8d
    79eb:	0f 84 97 00 00 00    	je     7a88 <_ZNSt6vectorIbSaIbEE13_M_insert_auxESt13_Bit_iteratorb+0x118>
    79f1:	41 83 e8 01          	sub    $0x1,%r8d
    79f5:	4d 89 f5             	mov    %r14,%r13
    79f8:	44 89 c1             	mov    %r8d,%ecx
    79fb:	49 d3 e5             	shl    %cl,%r13
    79fe:	85 f6                	test   %esi,%esi
    7a00:	0f 84 97 00 00 00    	je     7a9d <_ZNSt6vectorIbSaIbEE13_M_insert_auxESt13_Bit_iteratorb+0x12d>
    7a06:	83 ee 01             	sub    $0x1,%esi
    7a09:	4c 89 f2             	mov    %r14,%rdx
    7a0c:	89 f1                	mov    %esi,%ecx
    7a0e:	48 d3 e2             	shl    %cl,%rdx
    7a11:	49 8b 09             	mov    (%r9),%rcx
    7a14:	4d 85 2b             	test   %r13,(%r11)
    7a17:	74 57                	je     7a70 <_ZNSt6vectorIbSaIbEE13_M_insert_auxESt13_Bit_iteratorb+0x100>
    7a19:	48 09 ca             	or     %rcx,%rdx
    7a1c:	49 89 11             	mov    %rdx,(%r9)
    7a1f:	48 83 e8 01          	sub    $0x1,%rax
    7a23:	75 c3                	jne    79e8 <_ZNSt6vectorIbSaIbEE13_M_insert_auxESt13_Bit_iteratorb+0x78>
    7a25:	89 d9                	mov    %ebx,%ecx
    7a27:	b8 01 00 00 00       	mov    $0x1,%eax
    7a2c:	48 d3 e0             	shl    %cl,%rax
    7a2f:	49 8b 0c 24          	mov    (%r12),%rcx
    7a33:	48 89 c2             	mov    %rax,%rdx
    7a36:	48 f7 d2             	not    %rdx
    7a39:	48 09 c8             	or     %rcx,%rax
    7a3c:	48 21 ca             	and    %rcx,%rdx
    7a3f:	80 7c 24 08 00       	cmpb   $0x0,0x8(%rsp)
    7a44:	48 0f 44 c2          	cmove  %rdx,%rax
    7a48:	49 89 04 24          	mov    %rax,(%r12)
    7a4c:	41 83 fa 3f          	cmp    $0x3f,%r10d
    7a50:	74 5e                	je     7ab0 <_ZNSt6vectorIbSaIbEE13_M_insert_auxESt13_Bit_iteratorb+0x140>
    7a52:	41 83 c2 01          	add    $0x1,%r10d
    7a56:	44 89 55 18          	mov    %r10d,0x18(%rbp)
    7a5a:	48 83 c4 38          	add    $0x38,%rsp
    7a5e:	5b                   	pop    %rbx
    7a5f:	5d                   	pop    %rbp
    7a60:	41 5c                	pop    %r12
    7a62:	41 5d                	pop    %r13
    7a64:	41 5e                	pop    %r14
    7a66:	41 5f                	pop    %r15
    7a68:	c3                   	retq   
    7a69:	0f 1f 80 00 00 00 00 	nopl   0x0(%rax)
    7a70:	48 f7 d2             	not    %rdx
    7a73:	48 21 ca             	and    %rcx,%rdx
    7a76:	49 89 11             	mov    %rdx,(%r9)
    7a79:	48 83 e8 01          	sub    $0x1,%rax
    7a7d:	74 a6                	je     7a25 <_ZNSt6vectorIbSaIbEE13_M_insert_auxESt13_Bit_iteratorb+0xb5>
    7a7f:	45 85 c0             	test   %r8d,%r8d
    7a82:	0f 85 69 ff ff ff    	jne    79f1 <_ZNSt6vectorIbSaIbEE13_M_insert_auxESt13_Bit_iteratorb+0x81>
    7a88:	49 83 eb 08          	sub    $0x8,%r11
    7a8c:	4d 89 fd             	mov    %r15,%r13
    7a8f:	41 b8 3f 00 00 00    	mov    $0x3f,%r8d
    7a95:	85 f6                	test   %esi,%esi
    7a97:	0f 85 69 ff ff ff    	jne    7a06 <_ZNSt6vectorIbSaIbEE13_M_insert_auxESt13_Bit_iteratorb+0x96>
    7a9d:	49 83 e9 08          	sub    $0x8,%r9
    7aa1:	4c 89 fa             	mov    %r15,%rdx
    7aa4:	be 3f 00 00 00       	mov    $0x3f,%esi
    7aa9:	e9 63 ff ff ff       	jmpq   7a11 <_ZNSt6vectorIbSaIbEE13_M_insert_auxESt13_Bit_iteratorb+0xa1>
    7aae:	66 90                	xchg   %ax,%ax
    7ab0:	48 83 c7 08          	add    $0x8,%rdi
    7ab4:	c7 45 18 00 00 00 00 	movl   $0x0,0x18(%rbp)
    7abb:	48 89 7d 10          	mov    %rdi,0x10(%rbp)
    7abf:	48 83 c4 38          	add    $0x38,%rsp
    7ac3:	5b                   	pop    %rbx
    7ac4:	5d                   	pop    %rbp
    7ac5:	41 5c                	pop    %r12
    7ac7:	41 5d                	pop    %r13
    7ac9:	41 5e                	pop    %r14
    7acb:	41 5f                	pop    %r15
    7acd:	c3                   	retq   
    7ace:	66 90                	xchg   %ax,%ax
    7ad0:	48 b9 c0 ff ff ff ff 	movabs $0x7fffffffffffffc0,%rcx
    7ad7:	ff ff 7f 
    7ada:	48 2b 7d 00          	sub    0x0(%rbp),%rdi
    7ade:	48 8d 04 f8          	lea    (%rax,%rdi,8),%rax
    7ae2:	48 39 c8             	cmp    %rcx,%rax
    7ae5:	0f 84 38 02 00 00    	je     7d23 <_ZNSt6vectorIbSaIbEE13_M_insert_auxESt13_Bit_iteratorb+0x3b3>
    7aeb:	48 c7 44 24 10 08 00 	movq   $0x8,0x10(%rsp)
    7af2:	00 00 
    7af4:	49 89 f5             	mov    %rsi,%r13
    7af7:	48 85 c0             	test   %rax,%rax
    7afa:	74 34                	je     7b30 <_ZNSt6vectorIbSaIbEE13_M_insert_auxESt13_Bit_iteratorb+0x1c0>
    7afc:	48 be f8 ff ff ff ff 	movabs $0xffffffffffffff8,%rsi
    7b03:	ff ff 0f 
    7b06:	48 8d 14 00          	lea    (%rax,%rax,1),%rdx
    7b0a:	48 89 74 24 10       	mov    %rsi,0x10(%rsp)
    7b0f:	48 39 d0             	cmp    %rdx,%rax
    7b12:	77 1c                	ja     7b30 <_ZNSt6vectorIbSaIbEE13_M_insert_auxESt13_Bit_iteratorb+0x1c0>
    7b14:	48 39 ca             	cmp    %rcx,%rdx
    7b17:	48 0f 47 d1          	cmova  %rcx,%rdx
    7b1b:	48 83 c2 3f          	add    $0x3f,%rdx
    7b1f:	48 c1 ea 06          	shr    $0x6,%rdx
    7b23:	48 8d 04 d5 00 00 00 	lea    0x0(,%rdx,8),%rax
    7b2a:	00 
    7b2b:	48 89 44 24 10       	mov    %rax,0x10(%rsp)
    7b30:	48 8b 7c 24 10       	mov    0x10(%rsp),%rdi
    7b35:	e8 76 d9 ff ff       	callq  54b0 <_Znwm@plt>
    7b3a:	4c 8b 75 00          	mov    0x0(%rbp),%r14
    7b3e:	4c 89 e2             	mov    %r12,%rdx
    7b41:	49 89 c7             	mov    %rax,%r15
    7b44:	4c 29 f2             	sub    %r14,%rdx
    7b47:	4d 39 f4             	cmp    %r14,%r12
    7b4a:	74 15                	je     7b61 <_ZNSt6vectorIbSaIbEE13_M_insert_auxESt13_Bit_iteratorb+0x1f1>
    7b4c:	4c 89 f6             	mov    %r14,%rsi
    7b4f:	48 89 c7             	mov    %rax,%rdi
    7b52:	48 89 54 24 18       	mov    %rdx,0x18(%rsp)
    7b57:	e8 44 dc ff ff       	callq  57a0 <memmove@plt>
    7b5c:	48 8b 54 24 18       	mov    0x18(%rsp),%rdx
    7b61:	89 df                	mov    %ebx,%edi
    7b63:	49 8d 34 17          	lea    (%r15,%rdx,1),%rsi
    7b67:	48 89 7c 24 18       	mov    %rdi,0x18(%rsp)
    7b6c:	48 85 ff             	test   %rdi,%rdi
    7b6f:	0f 84 9b 01 00 00    	je     7d10 <_ZNSt6vectorIbSaIbEE13_M_insert_auxESt13_Bit_iteratorb+0x3a0>
    7b75:	4d 89 e1             	mov    %r12,%r9
    7b78:	31 c0                	xor    %eax,%eax
    7b7a:	41 ba 01 00 00 00    	mov    $0x1,%r10d
    7b80:	eb 1a                	jmp    7b9c <_ZNSt6vectorIbSaIbEE13_M_insert_auxESt13_Bit_iteratorb+0x22c>
    7b82:	66 0f 1f 44 00 00    	nopw   0x0(%rax,%rax,1)
    7b88:	8d 48 01             	lea    0x1(%rax),%ecx
    7b8b:	4d 89 d0             	mov    %r10,%r8
    7b8e:	8d 50 02             	lea    0x2(%rax),%edx
    7b91:	49 d3 e0             	shl    %cl,%r8
    7b94:	89 c8                	mov    %ecx,%eax
    7b96:	48 83 ef 01          	sub    $0x1,%rdi
    7b9a:	74 44                	je     7be0 <_ZNSt6vectorIbSaIbEE13_M_insert_auxESt13_Bit_iteratorb+0x270>
    7b9c:	89 c1                	mov    %eax,%ecx
    7b9e:	4c 89 d2             	mov    %r10,%rdx
    7ba1:	4c 8b 1e             	mov    (%rsi),%r11
    7ba4:	48 d3 e2             	shl    %cl,%rdx
    7ba7:	48 89 d1             	mov    %rdx,%rcx
    7baa:	49 89 d0             	mov    %rdx,%r8
    7bad:	48 f7 d2             	not    %rdx
    7bb0:	4d 09 d8             	or     %r11,%r8
    7bb3:	4c 21 da             	and    %r11,%rdx
    7bb6:	49 85 09             	test   %rcx,(%r9)
    7bb9:	49 0f 45 d0          	cmovne %r8,%rdx
    7bbd:	48 89 16             	mov    %rdx,(%rsi)
    7bc0:	83 f8 3f             	cmp    $0x3f,%eax
    7bc3:	75 c3                	jne    7b88 <_ZNSt6vectorIbSaIbEE13_M_insert_auxESt13_Bit_iteratorb+0x218>
    7bc5:	49 83 c1 08          	add    $0x8,%r9
    7bc9:	48 83 c6 08          	add    $0x8,%rsi
    7bcd:	41 b8 01 00 00 00    	mov    $0x1,%r8d
    7bd3:	31 c0                	xor    %eax,%eax
    7bd5:	ba 01 00 00 00       	mov    $0x1,%edx
    7bda:	48 83 ef 01          	sub    $0x1,%rdi
    7bde:	75 bc                	jne    7b9c <_ZNSt6vectorIbSaIbEE13_M_insert_auxESt13_Bit_iteratorb+0x22c>
    7be0:	49 89 f1             	mov    %rsi,%r9
    7be3:	83 f8 3f             	cmp    $0x3f,%eax
    7be6:	0f 84 14 01 00 00    	je     7d00 <_ZNSt6vectorIbSaIbEE13_M_insert_auxESt13_Bit_iteratorb+0x390>
    7bec:	48 8b 0e             	mov    (%rsi),%rcx
    7bef:	4c 89 c0             	mov    %r8,%rax
    7bf2:	49 f7 d0             	not    %r8
    7bf5:	48 09 c8             	or     %rcx,%rax
    7bf8:	49 21 c8             	and    %rcx,%r8
    7bfb:	80 7c 24 08 00       	cmpb   $0x0,0x8(%rsp)
    7c00:	8b 4d 18             	mov    0x18(%rbp),%ecx
    7c03:	4c 0f 45 c0          	cmovne %rax,%r8
    7c07:	48 8b 45 10          	mov    0x10(%rbp),%rax
    7c0b:	4c 29 e0             	sub    %r12,%rax
    7c0e:	4c 89 06             	mov    %r8,(%rsi)
    7c11:	48 8d 34 c1          	lea    (%rcx,%rax,8),%rsi
    7c15:	48 2b 74 24 18       	sub    0x18(%rsp),%rsi
    7c1a:	48 85 f6             	test   %rsi,%rsi
    7c1d:	7e 61                	jle    7c80 <_ZNSt6vectorIbSaIbEE13_M_insert_auxESt13_Bit_iteratorb+0x310>
    7c1f:	41 b8 01 00 00 00    	mov    $0x1,%r8d
    7c25:	eb 12                	jmp    7c39 <_ZNSt6vectorIbSaIbEE13_M_insert_auxESt13_Bit_iteratorb+0x2c9>
    7c27:	66 0f 1f 84 00 00 00 	nopw   0x0(%rax,%rax,1)
    7c2e:	00 00 
    7c30:	83 c2 01             	add    $0x1,%edx
    7c33:	48 83 ee 01          	sub    $0x1,%rsi
    7c37:	74 47                	je     7c80 <_ZNSt6vectorIbSaIbEE13_M_insert_auxESt13_Bit_iteratorb+0x310>
    7c39:	89 d1                	mov    %edx,%ecx
    7c3b:	4c 89 c0             	mov    %r8,%rax
    7c3e:	49 8b 39             	mov    (%r9),%rdi
    7c41:	4d 89 c2             	mov    %r8,%r10
    7c44:	48 d3 e0             	shl    %cl,%rax
    7c47:	89 d9                	mov    %ebx,%ecx
    7c49:	49 d3 e2             	shl    %cl,%r10
    7c4c:	48 89 c1             	mov    %rax,%rcx
    7c4f:	48 f7 d0             	not    %rax
    7c52:	48 09 f9             	or     %rdi,%rcx
    7c55:	48 21 f8             	and    %rdi,%rax
    7c58:	4d 85 55 00          	test   %r10,0x0(%r13)
    7c5c:	48 0f 45 c1          	cmovne %rcx,%rax
    7c60:	49 89 01             	mov    %rax,(%r9)
    7c63:	83 fb 3f             	cmp    $0x3f,%ebx
    7c66:	0f 84 84 00 00 00    	je     7cf0 <_ZNSt6vectorIbSaIbEE13_M_insert_auxESt13_Bit_iteratorb+0x380>
    7c6c:	83 c3 01             	add    $0x1,%ebx
    7c6f:	83 fa 3f             	cmp    $0x3f,%edx
    7c72:	75 bc                	jne    7c30 <_ZNSt6vectorIbSaIbEE13_M_insert_auxESt13_Bit_iteratorb+0x2c0>
    7c74:	49 83 c1 08          	add    $0x8,%r9
    7c78:	31 d2                	xor    %edx,%edx
    7c7a:	48 83 ee 01          	sub    $0x1,%rsi
    7c7e:	75 b9                	jne    7c39 <_ZNSt6vectorIbSaIbEE13_M_insert_auxESt13_Bit_iteratorb+0x2c9>
    7c80:	4d 85 f6             	test   %r14,%r14
    7c83:	74 38                	je     7cbd <_ZNSt6vectorIbSaIbEE13_M_insert_auxESt13_Bit_iteratorb+0x34d>
    7c85:	4c 89 f7             	mov    %r14,%rdi
    7c88:	89 54 24 18          	mov    %edx,0x18(%rsp)
    7c8c:	4c 89 4c 24 08       	mov    %r9,0x8(%rsp)
    7c91:	e8 fa d7 ff ff       	callq  5490 <_ZdlPv@plt>
    7c96:	c7 45 18 00 00 00 00 	movl   $0x0,0x18(%rbp)
    7c9d:	8b 54 24 18          	mov    0x18(%rsp),%edx
    7ca1:	48 c7 45 10 00 00 00 	movq   $0x0,0x10(%rbp)
    7ca8:	00 
    7ca9:	4c 8b 4c 24 08       	mov    0x8(%rsp),%r9
    7cae:	48 c7 45 00 00 00 00 	movq   $0x0,0x0(%rbp)
    7cb5:	00 
    7cb6:	c7 45 08 00 00 00 00 	movl   $0x0,0x8(%rbp)
    7cbd:	48 8b 44 24 10       	mov    0x10(%rsp),%rax
    7cc2:	4c 89 7d 00          	mov    %r15,0x0(%rbp)
    7cc6:	c7 45 08 00 00 00 00 	movl   $0x0,0x8(%rbp)
    7ccd:	4c 01 f8             	add    %r15,%rax
    7cd0:	4c 89 4d 10          	mov    %r9,0x10(%rbp)
    7cd4:	48 89 45 20          	mov    %rax,0x20(%rbp)
    7cd8:	89 55 18             	mov    %edx,0x18(%rbp)
    7cdb:	48 83 c4 38          	add    $0x38,%rsp
    7cdf:	5b                   	pop    %rbx
    7ce0:	5d                   	pop    %rbp
    7ce1:	41 5c                	pop    %r12
    7ce3:	41 5d                	pop    %r13
    7ce5:	41 5e                	pop    %r14
    7ce7:	41 5f                	pop    %r15
    7ce9:	c3                   	retq   
    7cea:	66 0f 1f 44 00 00    	nopw   0x0(%rax,%rax,1)
    7cf0:	49 83 c5 08          	add    $0x8,%r13
    7cf4:	31 db                	xor    %ebx,%ebx
    7cf6:	e9 74 ff ff ff       	jmpq   7c6f <_ZNSt6vectorIbSaIbEE13_M_insert_auxESt13_Bit_iteratorb+0x2ff>
    7cfb:	0f 1f 44 00 00       	nopl   0x0(%rax,%rax,1)
    7d00:	4c 8d 4e 08          	lea    0x8(%rsi),%r9
    7d04:	31 d2                	xor    %edx,%edx
    7d06:	e9 e1 fe ff ff       	jmpq   7bec <_ZNSt6vectorIbSaIbEE13_M_insert_auxESt13_Bit_iteratorb+0x27c>
    7d0b:	0f 1f 44 00 00       	nopl   0x0(%rax,%rax,1)
    7d10:	49 89 f1             	mov    %rsi,%r9
    7d13:	41 b8 01 00 00 00    	mov    $0x1,%r8d
    7d19:	ba 01 00 00 00       	mov    $0x1,%edx
    7d1e:	e9 c9 fe ff ff       	jmpq   7bec <_ZNSt6vectorIbSaIbEE13_M_insert_auxESt13_Bit_iteratorb+0x27c>
    7d23:	48 8d 3d 28 46 01 00 	lea    0x14628(%rip),%rdi        # 1c352 <_fini+0x126e>
    7d2a:	e8 11 d5 ff ff       	callq  5240 <_ZSt20__throw_length_errorPKc@plt>
    7d2f:	90                   	nop

0000000000007d30 <_ZNSt6vectorIN8pybind116handleESaIS1_EE17_M_realloc_insertIJRKS1_EEEvN9__gnu_cxx17__normal_iteratorIPS1_S3_EEDpOT_>:
    7d30:	48 b9 ff ff ff ff ff 	movabs $0xfffffffffffffff,%rcx
    7d37:	ff ff 0f 
    7d3a:	41 57                	push   %r15
    7d3c:	41 56                	push   %r14
    7d3e:	41 55                	push   %r13
    7d40:	41 54                	push   %r12
    7d42:	55                   	push   %rbp
    7d43:	53                   	push   %rbx
    7d44:	48 83 ec 28          	sub    $0x28,%rsp
    7d48:	4c 8b 7f 08          	mov    0x8(%rdi),%r15
    7d4c:	48 8b 2f             	mov    (%rdi),%rbp
    7d4f:	4c 89 f8             	mov    %r15,%rax
    7d52:	48 29 e8             	sub    %rbp,%rax
    7d55:	48 c1 f8 03          	sar    $0x3,%rax
    7d59:	48 39 c8             	cmp    %rcx,%rax
    7d5c:	0f 84 aa 01 00 00    	je     7f0c <_ZNSt6vectorIN8pybind116handleESaIS1_EE17_M_realloc_insertIJRKS1_EEEvN9__gnu_cxx17__normal_iteratorIPS1_S3_EEDpOT_+0x1dc>
    7d62:	49 89 f4             	mov    %rsi,%r12
    7d65:	49 89 fe             	mov    %rdi,%r14
    7d68:	48 29 ee             	sub    %rbp,%rsi
    7d6b:	48 85 c0             	test   %rax,%rax
    7d6e:	0f 84 4c 01 00 00    	je     7ec0 <_ZNSt6vectorIN8pybind116handleESaIS1_EE17_M_realloc_insertIJRKS1_EEEvN9__gnu_cxx17__normal_iteratorIPS1_S3_EEDpOT_+0x190>
    7d74:	49 bd f8 ff ff ff ff 	movabs $0x7ffffffffffffff8,%r13
    7d7b:	ff ff 7f 
    7d7e:	48 8d 3c 00          	lea    (%rax,%rax,1),%rdi
    7d82:	48 39 f8             	cmp    %rdi,%rax
    7d85:	0f 86 15 01 00 00    	jbe    7ea0 <_ZNSt6vectorIN8pybind116handleESaIS1_EE17_M_realloc_insertIJRKS1_EEEvN9__gnu_cxx17__normal_iteratorIPS1_S3_EEDpOT_+0x170>
    7d8b:	4c 89 ef             	mov    %r13,%rdi
    7d8e:	48 89 54 24 18       	mov    %rdx,0x18(%rsp)
    7d93:	48 89 74 24 10       	mov    %rsi,0x10(%rsp)
    7d98:	e8 13 d7 ff ff       	callq  54b0 <_Znwm@plt>
    7d9d:	48 8b 74 24 10       	mov    0x10(%rsp),%rsi
    7da2:	48 8b 54 24 18       	mov    0x18(%rsp),%rdx
    7da7:	48 89 c3             	mov    %rax,%rbx
    7daa:	4a 8d 04 28          	lea    (%rax,%r13,1),%rax
    7dae:	48 89 44 24 08       	mov    %rax,0x8(%rsp)
    7db3:	4c 8d 6b 08          	lea    0x8(%rbx),%r13
    7db7:	48 8b 02             	mov    (%rdx),%rax
    7dba:	48 89 04 33          	mov    %rax,(%rbx,%rsi,1)
    7dbe:	49 39 ec             	cmp    %rbp,%r12
    7dc1:	0f 84 83 00 00 00    	je     7e4a <_ZNSt6vectorIN8pybind116handleESaIS1_EE17_M_realloc_insertIJRKS1_EEEvN9__gnu_cxx17__normal_iteratorIPS1_S3_EEDpOT_+0x11a>
    7dc7:	49 8d 74 24 f8       	lea    -0x8(%r12),%rsi
    7dcc:	48 8d 43 0f          	lea    0xf(%rbx),%rax
    7dd0:	48 29 ee             	sub    %rbp,%rsi
    7dd3:	48 29 e8             	sub    %rbp,%rax
    7dd6:	48 89 f1             	mov    %rsi,%rcx
    7dd9:	48 c1 e9 03          	shr    $0x3,%rcx
    7ddd:	48 83 f8 1e          	cmp    $0x1e,%rax
    7de1:	0f 86 e9 00 00 00    	jbe    7ed0 <_ZNSt6vectorIN8pybind116handleESaIS1_EE17_M_realloc_insertIJRKS1_EEEvN9__gnu_cxx17__normal_iteratorIPS1_S3_EEDpOT_+0x1a0>
    7de7:	48 b8 fc ff ff ff ff 	movabs $0x1ffffffffffffffc,%rax
    7dee:	ff ff 1f 
    7df1:	48 85 c1             	test   %rax,%rcx
    7df4:	0f 84 d6 00 00 00    	je     7ed0 <_ZNSt6vectorIN8pybind116handleESaIS1_EE17_M_realloc_insertIJRKS1_EEEvN9__gnu_cxx17__normal_iteratorIPS1_S3_EEDpOT_+0x1a0>
    7dfa:	48 83 c1 01          	add    $0x1,%rcx
    7dfe:	31 c0                	xor    %eax,%eax
    7e00:	48 89 ca             	mov    %rcx,%rdx
    7e03:	48 d1 ea             	shr    %rdx
    7e06:	48 c1 e2 04          	shl    $0x4,%rdx
    7e0a:	66 0f 1f 44 00 00    	nopw   0x0(%rax,%rax,1)
    7e10:	f3 0f 6f 4c 05 00    	movdqu 0x0(%rbp,%rax,1),%xmm1
    7e16:	0f 11 0c 03          	movups %xmm1,(%rbx,%rax,1)
    7e1a:	48 83 c0 10          	add    $0x10,%rax
    7e1e:	48 39 d0             	cmp    %rdx,%rax
    7e21:	75 ed                	jne    7e10 <_ZNSt6vectorIN8pybind116handleESaIS1_EE17_M_realloc_insertIJRKS1_EEEvN9__gnu_cxx17__normal_iteratorIPS1_S3_EEDpOT_+0xe0>
    7e23:	48 89 cf             	mov    %rcx,%rdi
    7e26:	48 83 e7 fe          	and    $0xfffffffffffffffe,%rdi
    7e2a:	48 8d 14 fd 00 00 00 	lea    0x0(,%rdi,8),%rdx
    7e31:	00 
    7e32:	48 8d 44 15 00       	lea    0x0(%rbp,%rdx,1),%rax
    7e37:	48 01 da             	add    %rbx,%rdx
    7e3a:	48 39 f9             	cmp    %rdi,%rcx
    7e3d:	74 06                	je     7e45 <_ZNSt6vectorIN8pybind116handleESaIS1_EE17_M_realloc_insertIJRKS1_EEEvN9__gnu_cxx17__normal_iteratorIPS1_S3_EEDpOT_+0x115>
    7e3f:	48 8b 00             	mov    (%rax),%rax
    7e42:	48 89 02             	mov    %rax,(%rdx)
    7e45:	4c 8d 6c 33 10       	lea    0x10(%rbx,%rsi,1),%r13
    7e4a:	4d 39 fc             	cmp    %r15,%r12
    7e4d:	74 14                	je     7e63 <_ZNSt6vectorIN8pybind116handleESaIS1_EE17_M_realloc_insertIJRKS1_EEEvN9__gnu_cxx17__normal_iteratorIPS1_S3_EEDpOT_+0x133>
    7e4f:	4d 29 e7             	sub    %r12,%r15
    7e52:	4c 89 ef             	mov    %r13,%rdi
    7e55:	4c 89 e6             	mov    %r12,%rsi
    7e58:	4c 89 fa             	mov    %r15,%rdx
    7e5b:	4d 01 fd             	add    %r15,%r13
    7e5e:	e8 2d d5 ff ff       	callq  5390 <memcpy@plt>
    7e63:	48 85 ed             	test   %rbp,%rbp
    7e66:	74 08                	je     7e70 <_ZNSt6vectorIN8pybind116handleESaIS1_EE17_M_realloc_insertIJRKS1_EEEvN9__gnu_cxx17__normal_iteratorIPS1_S3_EEDpOT_+0x140>
    7e68:	48 89 ef             	mov    %rbp,%rdi
    7e6b:	e8 20 d6 ff ff       	callq  5490 <_ZdlPv@plt>
    7e70:	48 8b 44 24 08       	mov    0x8(%rsp),%rax
    7e75:	66 48 0f 6e c3       	movq   %rbx,%xmm0
    7e7a:	66 49 0f 6e d5       	movq   %r13,%xmm2
    7e7f:	66 0f 6c c2          	punpcklqdq %xmm2,%xmm0
    7e83:	49 89 46 10          	mov    %rax,0x10(%r14)
    7e87:	41 0f 11 06          	movups %xmm0,(%r14)
    7e8b:	48 83 c4 28          	add    $0x28,%rsp
    7e8f:	5b                   	pop    %rbx
    7e90:	5d                   	pop    %rbp
    7e91:	41 5c                	pop    %r12
    7e93:	41 5d                	pop    %r13
    7e95:	41 5e                	pop    %r14
    7e97:	41 5f                	pop    %r15
    7e99:	c3                   	retq   
    7e9a:	66 0f 1f 44 00 00    	nopw   0x0(%rax,%rax,1)
    7ea0:	48 85 ff             	test   %rdi,%rdi
    7ea3:	75 54                	jne    7ef9 <_ZNSt6vectorIN8pybind116handleESaIS1_EE17_M_realloc_insertIJRKS1_EEEvN9__gnu_cxx17__normal_iteratorIPS1_S3_EEDpOT_+0x1c9>
    7ea5:	48 c7 44 24 08 00 00 	movq   $0x0,0x8(%rsp)
    7eac:	00 00 
    7eae:	41 bd 08 00 00 00    	mov    $0x8,%r13d
    7eb4:	31 db                	xor    %ebx,%ebx
    7eb6:	e9 fc fe ff ff       	jmpq   7db7 <_ZNSt6vectorIN8pybind116handleESaIS1_EE17_M_realloc_insertIJRKS1_EEEvN9__gnu_cxx17__normal_iteratorIPS1_S3_EEDpOT_+0x87>
    7ebb:	0f 1f 44 00 00       	nopl   0x0(%rax,%rax,1)
    7ec0:	41 bd 08 00 00 00    	mov    $0x8,%r13d
    7ec6:	e9 c0 fe ff ff       	jmpq   7d8b <_ZNSt6vectorIN8pybind116handleESaIS1_EE17_M_realloc_insertIJRKS1_EEEvN9__gnu_cxx17__normal_iteratorIPS1_S3_EEDpOT_+0x5b>
    7ecb:	0f 1f 44 00 00       	nopl   0x0(%rax,%rax,1)
    7ed0:	48 89 da             	mov    %rbx,%rdx
    7ed3:	48 89 e8             	mov    %rbp,%rax
    7ed6:	66 2e 0f 1f 84 00 00 	nopw   %cs:0x0(%rax,%rax,1)
    7edd:	00 00 00 
    7ee0:	48 8b 08             	mov    (%rax),%rcx
    7ee3:	48 83 c0 08          	add    $0x8,%rax
    7ee7:	48 83 c2 08          	add    $0x8,%rdx
    7eeb:	48 89 4a f8          	mov    %rcx,-0x8(%rdx)
    7eef:	49 39 c4             	cmp    %rax,%r12
    7ef2:	75 ec                	jne    7ee0 <_ZNSt6vectorIN8pybind116handleESaIS1_EE17_M_realloc_insertIJRKS1_EEEvN9__gnu_cxx17__normal_iteratorIPS1_S3_EEDpOT_+0x1b0>
    7ef4:	e9 4c ff ff ff       	jmpq   7e45 <_ZNSt6vectorIN8pybind116handleESaIS1_EE17_M_realloc_insertIJRKS1_EEEvN9__gnu_cxx17__normal_iteratorIPS1_S3_EEDpOT_+0x115>
    7ef9:	48 39 cf             	cmp    %rcx,%rdi
    7efc:	48 0f 46 cf          	cmovbe %rdi,%rcx
    7f00:	49 89 cd             	mov    %rcx,%r13
    7f03:	49 c1 e5 03          	shl    $0x3,%r13
    7f07:	e9 7f fe ff ff       	jmpq   7d8b <_ZNSt6vectorIN8pybind116handleESaIS1_EE17_M_realloc_insertIJRKS1_EEEvN9__gnu_cxx17__normal_iteratorIPS1_S3_EEDpOT_+0x5b>
    7f0c:	48 8d 3d 25 44 01 00 	lea    0x14425(%rip),%rdi        # 1c338 <_fini+0x1254>
    7f13:	e8 28 d3 ff ff       	callq  5240 <_ZSt20__throw_length_errorPKc@plt>
    7f18:	0f 1f 84 00 00 00 00 	nopl   0x0(%rax,%rax,1)
    7f1f:	00 

0000000000007f20 <_ZNSt6vectorIP7_objectSaIS1_EE17_M_realloc_insertIJS1_EEEvN9__gnu_cxx17__normal_iteratorIPS1_S3_EEDpOT_>:
    7f20:	48 b9 ff ff ff ff ff 	movabs $0xfffffffffffffff,%rcx
    7f27:	ff ff 0f 
    7f2a:	41 57                	push   %r15
    7f2c:	41 56                	push   %r14
    7f2e:	41 55                	push   %r13
    7f30:	41 54                	push   %r12
    7f32:	55                   	push   %rbp
    7f33:	53                   	push   %rbx
    7f34:	48 83 ec 18          	sub    $0x18,%rsp
    7f38:	4c 8b 67 08          	mov    0x8(%rdi),%r12
    7f3c:	4c 8b 07             	mov    (%rdi),%r8
    7f3f:	4c 89 e0             	mov    %r12,%rax
    7f42:	4c 29 c0             	sub    %r8,%rax
    7f45:	48 c1 f8 03          	sar    $0x3,%rax
    7f49:	48 39 c8             	cmp    %rcx,%rax
    7f4c:	0f 84 11 01 00 00    	je     8063 <_ZNSt6vectorIP7_objectSaIS1_EE17_M_realloc_insertIJS1_EEEvN9__gnu_cxx17__normal_iteratorIPS1_S3_EEDpOT_+0x143>
    7f52:	49 89 d7             	mov    %rdx,%r15
    7f55:	48 89 f2             	mov    %rsi,%rdx
    7f58:	48 89 fd             	mov    %rdi,%rbp
    7f5b:	49 89 f5             	mov    %rsi,%r13
    7f5e:	4c 29 c2             	sub    %r8,%rdx
    7f61:	48 85 c0             	test   %rax,%rax
    7f64:	0f 84 ee 00 00 00    	je     8058 <_ZNSt6vectorIP7_objectSaIS1_EE17_M_realloc_insertIJS1_EEEvN9__gnu_cxx17__normal_iteratorIPS1_S3_EEDpOT_+0x138>
    7f6a:	49 be f8 ff ff ff ff 	movabs $0x7ffffffffffffff8,%r14
    7f71:	ff ff 7f 
    7f74:	48 8d 34 00          	lea    (%rax,%rax,1),%rsi
    7f78:	48 39 f0             	cmp    %rsi,%rax
    7f7b:	0f 86 97 00 00 00    	jbe    8018 <_ZNSt6vectorIP7_objectSaIS1_EE17_M_realloc_insertIJS1_EEEvN9__gnu_cxx17__normal_iteratorIPS1_S3_EEDpOT_+0xf8>
    7f81:	4c 89 f7             	mov    %r14,%rdi
    7f84:	48 89 54 24 08       	mov    %rdx,0x8(%rsp)
    7f89:	4c 89 04 24          	mov    %r8,(%rsp)
    7f8d:	e8 1e d5 ff ff       	callq  54b0 <_Znwm@plt>
    7f92:	4c 8b 04 24          	mov    (%rsp),%r8
    7f96:	48 8b 54 24 08       	mov    0x8(%rsp),%rdx
    7f9b:	48 89 c3             	mov    %rax,%rbx
    7f9e:	49 01 c6             	add    %rax,%r14
    7fa1:	49 8b 07             	mov    (%r15),%rax
    7fa4:	4d 29 ec             	sub    %r13,%r12
    7fa7:	4c 8d 7c 13 08       	lea    0x8(%rbx,%rdx,1),%r15
    7fac:	48 89 04 13          	mov    %rax,(%rbx,%rdx,1)
    7fb0:	4b 8d 04 27          	lea    (%r15,%r12,1),%rax
    7fb4:	48 89 04 24          	mov    %rax,(%rsp)
    7fb8:	48 85 d2             	test   %rdx,%rdx
    7fbb:	7f 33                	jg     7ff0 <_ZNSt6vectorIP7_objectSaIS1_EE17_M_realloc_insertIJS1_EEEvN9__gnu_cxx17__normal_iteratorIPS1_S3_EEDpOT_+0xd0>
    7fbd:	4d 85 e4             	test   %r12,%r12
    7fc0:	7f 6e                	jg     8030 <_ZNSt6vectorIP7_objectSaIS1_EE17_M_realloc_insertIJS1_EEEvN9__gnu_cxx17__normal_iteratorIPS1_S3_EEDpOT_+0x110>
    7fc2:	4d 85 c0             	test   %r8,%r8
    7fc5:	75 43                	jne    800a <_ZNSt6vectorIP7_objectSaIS1_EE17_M_realloc_insertIJS1_EEEvN9__gnu_cxx17__normal_iteratorIPS1_S3_EEDpOT_+0xea>
    7fc7:	66 48 0f 6e c3       	movq   %rbx,%xmm0
    7fcc:	4c 89 75 10          	mov    %r14,0x10(%rbp)
    7fd0:	0f 16 04 24          	movhps (%rsp),%xmm0
    7fd4:	0f 11 45 00          	movups %xmm0,0x0(%rbp)
    7fd8:	48 83 c4 18          	add    $0x18,%rsp
    7fdc:	5b                   	pop    %rbx
    7fdd:	5d                   	pop    %rbp
    7fde:	41 5c                	pop    %r12
    7fe0:	41 5d                	pop    %r13
    7fe2:	41 5e                	pop    %r14
    7fe4:	41 5f                	pop    %r15
    7fe6:	c3                   	retq   
    7fe7:	66 0f 1f 84 00 00 00 	nopw   0x0(%rax,%rax,1)
    7fee:	00 00 
    7ff0:	4c 89 c6             	mov    %r8,%rsi
    7ff3:	48 89 df             	mov    %rbx,%rdi
    7ff6:	4c 89 44 24 08       	mov    %r8,0x8(%rsp)
    7ffb:	e8 a0 d7 ff ff       	callq  57a0 <memmove@plt>
    8000:	4d 85 e4             	test   %r12,%r12
    8003:	4c 8b 44 24 08       	mov    0x8(%rsp),%r8
    8008:	7f 26                	jg     8030 <_ZNSt6vectorIP7_objectSaIS1_EE17_M_realloc_insertIJS1_EEEvN9__gnu_cxx17__normal_iteratorIPS1_S3_EEDpOT_+0x110>
    800a:	4c 89 c7             	mov    %r8,%rdi
    800d:	e8 7e d4 ff ff       	callq  5490 <_ZdlPv@plt>
    8012:	eb b3                	jmp    7fc7 <_ZNSt6vectorIP7_objectSaIS1_EE17_M_realloc_insertIJS1_EEEvN9__gnu_cxx17__normal_iteratorIPS1_S3_EEDpOT_+0xa7>
    8014:	0f 1f 40 00          	nopl   0x0(%rax)
    8018:	48 85 f6             	test   %rsi,%rsi
    801b:	75 52                	jne    806f <_ZNSt6vectorIP7_objectSaIS1_EE17_M_realloc_insertIJS1_EEEvN9__gnu_cxx17__normal_iteratorIPS1_S3_EEDpOT_+0x14f>
    801d:	45 31 f6             	xor    %r14d,%r14d
    8020:	31 db                	xor    %ebx,%ebx
    8022:	e9 7a ff ff ff       	jmpq   7fa1 <_ZNSt6vectorIP7_objectSaIS1_EE17_M_realloc_insertIJS1_EEEvN9__gnu_cxx17__normal_iteratorIPS1_S3_EEDpOT_+0x81>
    8027:	66 0f 1f 84 00 00 00 	nopw   0x0(%rax,%rax,1)
    802e:	00 00 
    8030:	4c 89 e2             	mov    %r12,%rdx
    8033:	4c 89 ee             	mov    %r13,%rsi
    8036:	4c 89 ff             	mov    %r15,%rdi
    8039:	4c 89 44 24 08       	mov    %r8,0x8(%rsp)
    803e:	e8 4d d3 ff ff       	callq  5390 <memcpy@plt>
    8043:	4c 8b 44 24 08       	mov    0x8(%rsp),%r8
    8048:	4d 85 c0             	test   %r8,%r8
    804b:	0f 84 76 ff ff ff    	je     7fc7 <_ZNSt6vectorIP7_objectSaIS1_EE17_M_realloc_insertIJS1_EEEvN9__gnu_cxx17__normal_iteratorIPS1_S3_EEDpOT_+0xa7>
    8051:	eb b7                	jmp    800a <_ZNSt6vectorIP7_objectSaIS1_EE17_M_realloc_insertIJS1_EEEvN9__gnu_cxx17__normal_iteratorIPS1_S3_EEDpOT_+0xea>
    8053:	0f 1f 44 00 00       	nopl   0x0(%rax,%rax,1)
    8058:	41 be 08 00 00 00    	mov    $0x8,%r14d
    805e:	e9 1e ff ff ff       	jmpq   7f81 <_ZNSt6vectorIP7_objectSaIS1_EE17_M_realloc_insertIJS1_EEEvN9__gnu_cxx17__normal_iteratorIPS1_S3_EEDpOT_+0x61>
    8063:	48 8d 3d ce 42 01 00 	lea    0x142ce(%rip),%rdi        # 1c338 <_fini+0x1254>
    806a:	e8 d1 d1 ff ff       	callq  5240 <_ZSt20__throw_length_errorPKc@plt>
    806f:	48 39 ce             	cmp    %rcx,%rsi
    8072:	48 0f 46 ce          	cmovbe %rsi,%rcx
    8076:	49 89 ce             	mov    %rcx,%r14
    8079:	49 c1 e6 03          	shl    $0x3,%r14
    807d:	e9 ff fe ff ff       	jmpq   7f81 <_ZNSt6vectorIP7_objectSaIS1_EE17_M_realloc_insertIJS1_EEEvN9__gnu_cxx17__normal_iteratorIPS1_S3_EEDpOT_+0x61>
    8082:	66 2e 0f 1f 84 00 00 	nopw   %cs:0x0(%rax,%rax,1)
    8089:	00 00 00 
    808c:	0f 1f 40 00          	nopl   0x0(%rax)

0000000000008090 <_ZNSt6vectorIP11_typeobjectSaIS1_EE17_M_realloc_insertIJS1_EEEvN9__gnu_cxx17__normal_iteratorIPS1_S3_EEDpOT_>:
    8090:	48 b9 ff ff ff ff ff 	movabs $0xfffffffffffffff,%rcx
    8097:	ff ff 0f 
    809a:	41 57                	push   %r15
    809c:	41 56                	push   %r14
    809e:	41 55                	push   %r13
    80a0:	41 54                	push   %r12
    80a2:	55                   	push   %rbp
    80a3:	53                   	push   %rbx
    80a4:	48 83 ec 18          	sub    $0x18,%rsp
    80a8:	4c 8b 67 08          	mov    0x8(%rdi),%r12
    80ac:	4c 8b 07             	mov    (%rdi),%r8
    80af:	4c 89 e0             	mov    %r12,%rax
    80b2:	4c 29 c0             	sub    %r8,%rax
    80b5:	48 c1 f8 03          	sar    $0x3,%rax
    80b9:	48 39 c8             	cmp    %rcx,%rax
    80bc:	0f 84 11 01 00 00    	je     81d3 <_ZNSt6vectorIP11_typeobjectSaIS1_EE17_M_realloc_insertIJS1_EEEvN9__gnu_cxx17__normal_iteratorIPS1_S3_EEDpOT_+0x143>
    80c2:	49 89 d7             	mov    %rdx,%r15
    80c5:	48 89 f2             	mov    %rsi,%rdx
    80c8:	48 89 fd             	mov    %rdi,%rbp
    80cb:	49 89 f5             	mov    %rsi,%r13
    80ce:	4c 29 c2             	sub    %r8,%rdx
    80d1:	48 85 c0             	test   %rax,%rax
    80d4:	0f 84 ee 00 00 00    	je     81c8 <_ZNSt6vectorIP11_typeobjectSaIS1_EE17_M_realloc_insertIJS1_EEEvN9__gnu_cxx17__normal_iteratorIPS1_S3_EEDpOT_+0x138>
    80da:	49 be f8 ff ff ff ff 	movabs $0x7ffffffffffffff8,%r14
    80e1:	ff ff 7f 
    80e4:	48 8d 34 00          	lea    (%rax,%rax,1),%rsi
    80e8:	48 39 f0             	cmp    %rsi,%rax
    80eb:	0f 86 97 00 00 00    	jbe    8188 <_ZNSt6vectorIP11_typeobjectSaIS1_EE17_M_realloc_insertIJS1_EEEvN9__gnu_cxx17__normal_iteratorIPS1_S3_EEDpOT_+0xf8>
    80f1:	4c 89 f7             	mov    %r14,%rdi
    80f4:	48 89 54 24 08       	mov    %rdx,0x8(%rsp)
    80f9:	4c 89 04 24          	mov    %r8,(%rsp)
    80fd:	e8 ae d3 ff ff       	callq  54b0 <_Znwm@plt>
    8102:	4c 8b 04 24          	mov    (%rsp),%r8
    8106:	48 8b 54 24 08       	mov    0x8(%rsp),%rdx
    810b:	48 89 c3             	mov    %rax,%rbx
    810e:	49 01 c6             	add    %rax,%r14
    8111:	49 8b 07             	mov    (%r15),%rax
    8114:	4d 29 ec             	sub    %r13,%r12
    8117:	4c 8d 7c 13 08       	lea    0x8(%rbx,%rdx,1),%r15
    811c:	48 89 04 13          	mov    %rax,(%rbx,%rdx,1)
    8120:	4b 8d 04 27          	lea    (%r15,%r12,1),%rax
    8124:	48 89 04 24          	mov    %rax,(%rsp)
    8128:	48 85 d2             	test   %rdx,%rdx
    812b:	7f 33                	jg     8160 <_ZNSt6vectorIP11_typeobjectSaIS1_EE17_M_realloc_insertIJS1_EEEvN9__gnu_cxx17__normal_iteratorIPS1_S3_EEDpOT_+0xd0>
    812d:	4d 85 e4             	test   %r12,%r12
    8130:	7f 6e                	jg     81a0 <_ZNSt6vectorIP11_typeobjectSaIS1_EE17_M_realloc_insertIJS1_EEEvN9__gnu_cxx17__normal_iteratorIPS1_S3_EEDpOT_+0x110>
    8132:	4d 85 c0             	test   %r8,%r8
    8135:	75 43                	jne    817a <_ZNSt6vectorIP11_typeobjectSaIS1_EE17_M_realloc_insertIJS1_EEEvN9__gnu_cxx17__normal_iteratorIPS1_S3_EEDpOT_+0xea>
    8137:	66 48 0f 6e c3       	movq   %rbx,%xmm0
    813c:	4c 89 75 10          	mov    %r14,0x10(%rbp)
    8140:	0f 16 04 24          	movhps (%rsp),%xmm0
    8144:	0f 11 45 00          	movups %xmm0,0x0(%rbp)
    8148:	48 83 c4 18          	add    $0x18,%rsp
    814c:	5b                   	pop    %rbx
    814d:	5d                   	pop    %rbp
    814e:	41 5c                	pop    %r12
    8150:	41 5d                	pop    %r13
    8152:	41 5e                	pop    %r14
    8154:	41 5f                	pop    %r15
    8156:	c3                   	retq   
    8157:	66 0f 1f 84 00 00 00 	nopw   0x0(%rax,%rax,1)
    815e:	00 00 
    8160:	4c 89 c6             	mov    %r8,%rsi
    8163:	48 89 df             	mov    %rbx,%rdi
    8166:	4c 89 44 24 08       	mov    %r8,0x8(%rsp)
    816b:	e8 30 d6 ff ff       	callq  57a0 <memmove@plt>
    8170:	4d 85 e4             	test   %r12,%r12
    8173:	4c 8b 44 24 08       	mov    0x8(%rsp),%r8
    8178:	7f 26                	jg     81a0 <_ZNSt6vectorIP11_typeobjectSaIS1_EE17_M_realloc_insertIJS1_EEEvN9__gnu_cxx17__normal_iteratorIPS1_S3_EEDpOT_+0x110>
    817a:	4c 89 c7             	mov    %r8,%rdi
    817d:	e8 0e d3 ff ff       	callq  5490 <_ZdlPv@plt>
    8182:	eb b3                	jmp    8137 <_ZNSt6vectorIP11_typeobjectSaIS1_EE17_M_realloc_insertIJS1_EEEvN9__gnu_cxx17__normal_iteratorIPS1_S3_EEDpOT_+0xa7>
    8184:	0f 1f 40 00          	nopl   0x0(%rax)
    8188:	48 85 f6             	test   %rsi,%rsi
    818b:	75 52                	jne    81df <_ZNSt6vectorIP11_typeobjectSaIS1_EE17_M_realloc_insertIJS1_EEEvN9__gnu_cxx17__normal_iteratorIPS1_S3_EEDpOT_+0x14f>
    818d:	45 31 f6             	xor    %r14d,%r14d
    8190:	31 db                	xor    %ebx,%ebx
    8192:	e9 7a ff ff ff       	jmpq   8111 <_ZNSt6vectorIP11_typeobjectSaIS1_EE17_M_realloc_insertIJS1_EEEvN9__gnu_cxx17__normal_iteratorIPS1_S3_EEDpOT_+0x81>
    8197:	66 0f 1f 84 00 00 00 	nopw   0x0(%rax,%rax,1)
    819e:	00 00 
    81a0:	4c 89 e2             	mov    %r12,%rdx
    81a3:	4c 89 ee             	mov    %r13,%rsi
    81a6:	4c 89 ff             	mov    %r15,%rdi
    81a9:	4c 89 44 24 08       	mov    %r8,0x8(%rsp)
    81ae:	e8 dd d1 ff ff       	callq  5390 <memcpy@plt>
    81b3:	4c 8b 44 24 08       	mov    0x8(%rsp),%r8
    81b8:	4d 85 c0             	test   %r8,%r8
    81bb:	0f 84 76 ff ff ff    	je     8137 <_ZNSt6vectorIP11_typeobjectSaIS1_EE17_M_realloc_insertIJS1_EEEvN9__gnu_cxx17__normal_iteratorIPS1_S3_EEDpOT_+0xa7>
    81c1:	eb b7                	jmp    817a <_ZNSt6vectorIP11_typeobjectSaIS1_EE17_M_realloc_insertIJS1_EEEvN9__gnu_cxx17__normal_iteratorIPS1_S3_EEDpOT_+0xea>
    81c3:	0f 1f 44 00 00       	nopl   0x0(%rax,%rax,1)
    81c8:	41 be 08 00 00 00    	mov    $0x8,%r14d
    81ce:	e9 1e ff ff ff       	jmpq   80f1 <_ZNSt6vectorIP11_typeobjectSaIS1_EE17_M_realloc_insertIJS1_EEEvN9__gnu_cxx17__normal_iteratorIPS1_S3_EEDpOT_+0x61>
    81d3:	48 8d 3d 5e 41 01 00 	lea    0x1415e(%rip),%rdi        # 1c338 <_fini+0x1254>
    81da:	e8 61 d0 ff ff       	callq  5240 <_ZSt20__throw_length_errorPKc@plt>
    81df:	48 39 ce             	cmp    %rcx,%rsi
    81e2:	48 0f 46 ce          	cmovbe %rsi,%rcx
    81e6:	49 89 ce             	mov    %rcx,%r14
    81e9:	49 c1 e6 03          	shl    $0x3,%r14
    81ed:	e9 ff fe ff ff       	jmpq   80f1 <_ZNSt6vectorIP11_typeobjectSaIS1_EE17_M_realloc_insertIJS1_EEEvN9__gnu_cxx17__normal_iteratorIPS1_S3_EEDpOT_+0x61>
    81f2:	66 2e 0f 1f 84 00 00 	nopw   %cs:0x0(%rax,%rax,1)
    81f9:	00 00 00 
    81fc:	0f 1f 40 00          	nopl   0x0(%rax)

0000000000008200 <_ZNSt6vectorIbSaIbEE14_M_fill_insertESt13_Bit_iteratormb>:
    8200:	41 57                	push   %r15
    8202:	41 56                	push   %r14
    8204:	41 55                	push   %r13
    8206:	41 54                	push   %r12
    8208:	55                   	push   %rbp
    8209:	53                   	push   %rbx
    820a:	48 83 ec 38          	sub    $0x38,%rsp
    820e:	44 89 04 24          	mov    %r8d,(%rsp)
    8212:	48 89 74 24 20       	mov    %rsi,0x20(%rsp)
    8217:	48 89 54 24 28       	mov    %rdx,0x28(%rsp)
    821c:	48 85 c9             	test   %rcx,%rcx
    821f:	0f 84 cf 01 00 00    	je     83f4 <_ZNSt6vectorIbSaIbEE14_M_fill_insertESt13_Bit_iteratormb+0x1f4>
    8225:	48 8b 07             	mov    (%rdi),%rax
    8228:	48 89 74 24 08       	mov    %rsi,0x8(%rsp)
    822d:	48 89 f5             	mov    %rsi,%rbp
    8230:	49 89 cc             	mov    %rcx,%r12
    8233:	4c 8b 57 10          	mov    0x10(%rdi),%r10
    8237:	48 8b 77 20          	mov    0x20(%rdi),%rsi
    823b:	48 89 fb             	mov    %rdi,%rbx
    823e:	8b 57 18             	mov    0x18(%rdi),%edx
    8241:	44 8b 6c 24 28       	mov    0x28(%rsp),%r13d
    8246:	4c 89 d1             	mov    %r10,%rcx
    8249:	48 29 c6             	sub    %rax,%rsi
    824c:	48 29 c1             	sub    %rax,%rcx
    824f:	48 89 f0             	mov    %rsi,%rax
    8252:	49 89 d0             	mov    %rdx,%r8
    8255:	48 8d 0c ca          	lea    (%rdx,%rcx,8),%rcx
    8259:	48 c1 e0 03          	shl    $0x3,%rax
    825d:	48 29 c8             	sub    %rcx,%rax
    8260:	4c 39 e0             	cmp    %r12,%rax
    8263:	0f 82 9f 01 00 00    	jb     8408 <_ZNSt6vectorIbSaIbEE14_M_fill_insertESt13_Bit_iteratormb+0x208>
    8269:	49 8d 04 14          	lea    (%r12,%rdx,1),%rax
    826d:	48 85 c0             	test   %rax,%rax
    8270:	48 8d 48 3f          	lea    0x3f(%rax),%rcx
    8274:	48 0f 49 c8          	cmovns %rax,%rcx
    8278:	48 c1 f9 06          	sar    $0x6,%rcx
    827c:	49 8d 34 ca          	lea    (%r10,%rcx,8),%rsi
    8280:	48 89 c1             	mov    %rax,%rcx
    8283:	48 c1 f9 3f          	sar    $0x3f,%rcx
    8287:	48 89 74 24 10       	mov    %rsi,0x10(%rsp)
    828c:	49 89 f1             	mov    %rsi,%r9
    828f:	48 c1 e9 3a          	shr    $0x3a,%rcx
    8293:	48 01 c8             	add    %rcx,%rax
    8296:	83 e0 3f             	and    $0x3f,%eax
    8299:	48 29 c8             	sub    %rcx,%rax
    829c:	48 89 c7             	mov    %rax,%rdi
    829f:	79 08                	jns    82a9 <_ZNSt6vectorIbSaIbEE14_M_fill_insertESt13_Bit_iteratormb+0xa9>
    82a1:	48 8d 78 40          	lea    0x40(%rax),%rdi
    82a5:	4c 8d 4e f8          	lea    -0x8(%rsi),%r9
    82a9:	49 be 00 00 00 00 00 	movabs $0x8000000000000000,%r14
    82b0:	00 00 80 
    82b3:	4c 89 d1             	mov    %r10,%rcx
    82b6:	45 89 ef             	mov    %r13d,%r15d
    82b9:	48 29 e9             	sub    %rbp,%rcx
    82bc:	4c 89 7c 24 18       	mov    %r15,0x18(%rsp)
    82c1:	48 8d 34 ca          	lea    (%rdx,%rcx,8),%rsi
    82c5:	4c 29 fe             	sub    %r15,%rsi
    82c8:	41 bf 01 00 00 00    	mov    $0x1,%r15d
    82ce:	48 85 f6             	test   %rsi,%rsi
    82d1:	7e 46                	jle    8319 <_ZNSt6vectorIbSaIbEE14_M_fill_insertESt13_Bit_iteratormb+0x119>
    82d3:	0f 1f 44 00 00       	nopl   0x0(%rax,%rax,1)
    82d8:	45 85 c0             	test   %r8d,%r8d
    82db:	0f 84 9b 03 00 00    	je     867c <_ZNSt6vectorIbSaIbEE14_M_fill_insertESt13_Bit_iteratormb+0x47c>
    82e1:	41 83 e8 01          	sub    $0x1,%r8d
    82e5:	4d 89 fb             	mov    %r15,%r11
    82e8:	44 89 c1             	mov    %r8d,%ecx
    82eb:	49 d3 e3             	shl    %cl,%r11
    82ee:	85 ff                	test   %edi,%edi
    82f0:	0f 84 9b 03 00 00    	je     8691 <_ZNSt6vectorIbSaIbEE14_M_fill_insertESt13_Bit_iteratormb+0x491>
    82f6:	83 ef 01             	sub    $0x1,%edi
    82f9:	4c 89 fa             	mov    %r15,%rdx
    82fc:	89 f9                	mov    %edi,%ecx
    82fe:	48 d3 e2             	shl    %cl,%rdx
    8301:	49 8b 09             	mov    (%r9),%rcx
    8304:	4d 85 1a             	test   %r11,(%r10)
    8307:	0f 84 53 03 00 00    	je     8660 <_ZNSt6vectorIbSaIbEE14_M_fill_insertESt13_Bit_iteratormb+0x460>
    830d:	48 09 ca             	or     %rcx,%rdx
    8310:	49 89 11             	mov    %rdx,(%r9)
    8313:	48 83 ee 01          	sub    $0x1,%rsi
    8317:	75 bf                	jne    82d8 <_ZNSt6vectorIbSaIbEE14_M_fill_insertESt13_Bit_iteratormb+0xd8>
    8319:	4c 8b 74 24 18       	mov    0x18(%rsp),%r14
    831e:	4d 01 e6             	add    %r12,%r14
    8321:	49 8d 56 3f          	lea    0x3f(%r14),%rdx
    8325:	49 0f 49 d6          	cmovns %r14,%rdx
    8329:	48 c1 fa 06          	sar    $0x6,%rdx
    832d:	4c 8d 7c d5 00       	lea    0x0(%rbp,%rdx,8),%r15
    8332:	4c 89 f2             	mov    %r14,%rdx
    8335:	48 c1 fa 3f          	sar    $0x3f,%rdx
    8339:	48 c1 ea 3a          	shr    $0x3a,%rdx
    833d:	49 01 d6             	add    %rdx,%r14
    8340:	41 83 e6 3f          	and    $0x3f,%r14d
    8344:	49 29 d6             	sub    %rdx,%r14
    8347:	79 08                	jns    8351 <_ZNSt6vectorIbSaIbEE14_M_fill_insertESt13_Bit_iteratormb+0x151>
    8349:	49 83 c6 40          	add    $0x40,%r14
    834d:	49 83 ef 08          	sub    $0x8,%r15
    8351:	45 89 f0             	mov    %r14d,%r8d
    8354:	49 39 ef             	cmp    %rbp,%r15
    8357:	0f 84 f3 03 00 00    	je     8750 <_ZNSt6vectorIbSaIbEE14_M_fill_insertESt13_Bit_iteratormb+0x550>
    835d:	45 85 ed             	test   %r13d,%r13d
    8360:	0f 85 42 03 00 00    	jne    86a8 <_ZNSt6vectorIbSaIbEE14_M_fill_insertESt13_Bit_iteratormb+0x4a8>
    8366:	4d 89 f9             	mov    %r15,%r9
    8369:	49 29 e9             	sub    %rbp,%r9
    836c:	80 3c 24 00          	cmpb   $0x0,(%rsp)
    8370:	0f 84 99 03 00 00    	je     870f <_ZNSt6vectorIbSaIbEE14_M_fill_insertESt13_Bit_iteratormb+0x50f>
    8376:	48 8b 7c 24 08       	mov    0x8(%rsp),%rdi
    837b:	4c 89 ca             	mov    %r9,%rdx
    837e:	be ff ff ff ff       	mov    $0xffffffff,%esi
    8383:	44 89 04 24          	mov    %r8d,(%rsp)
    8387:	e8 d4 ce ff ff       	callq  5260 <memset@plt>
    838c:	4d 85 f6             	test   %r14,%r14
    838f:	44 8b 04 24          	mov    (%rsp),%r8d
    8393:	74 15                	je     83aa <_ZNSt6vectorIbSaIbEE14_M_fill_insertESt13_Bit_iteratormb+0x1aa>
    8395:	b9 40 00 00 00       	mov    $0x40,%ecx
    839a:	48 c7 c0 ff ff ff ff 	mov    $0xffffffffffffffff,%rax
    83a1:	44 29 c1             	sub    %r8d,%ecx
    83a4:	48 d3 e8             	shr    %cl,%rax
    83a7:	49 09 07             	or     %rax,(%r15)
    83aa:	8b 4b 18             	mov    0x18(%rbx),%ecx
    83ad:	48 8b 53 10          	mov    0x10(%rbx),%rdx
    83b1:	49 01 cc             	add    %rcx,%r12
    83b4:	49 8d 44 24 3f       	lea    0x3f(%r12),%rax
    83b9:	49 0f 49 c4          	cmovns %r12,%rax
    83bd:	48 c1 f8 06          	sar    $0x6,%rax
    83c1:	48 8d 04 c2          	lea    (%rdx,%rax,8),%rax
    83c5:	4c 89 e2             	mov    %r12,%rdx
    83c8:	48 c1 fa 3f          	sar    $0x3f,%rdx
    83cc:	48 89 44 24 10       	mov    %rax,0x10(%rsp)
    83d1:	48 c1 ea 3a          	shr    $0x3a,%rdx
    83d5:	49 8d 04 14          	lea    (%r12,%rdx,1),%rax
    83d9:	83 e0 3f             	and    $0x3f,%eax
    83dc:	48 29 d0             	sub    %rdx,%rax
    83df:	48 85 c0             	test   %rax,%rax
    83e2:	0f 88 f8 02 00 00    	js     86e0 <_ZNSt6vectorIbSaIbEE14_M_fill_insertESt13_Bit_iteratormb+0x4e0>
    83e8:	48 8b 74 24 10       	mov    0x10(%rsp),%rsi
    83ed:	48 89 73 10          	mov    %rsi,0x10(%rbx)
    83f1:	89 43 18             	mov    %eax,0x18(%rbx)
    83f4:	48 83 c4 38          	add    $0x38,%rsp
    83f8:	5b                   	pop    %rbx
    83f9:	5d                   	pop    %rbp
    83fa:	41 5c                	pop    %r12
    83fc:	41 5d                	pop    %r13
    83fe:	41 5e                	pop    %r14
    8400:	41 5f                	pop    %r15
    8402:	c3                   	retq   
    8403:	0f 1f 44 00 00       	nopl   0x0(%rax,%rax,1)
    8408:	48 b8 c0 ff ff ff ff 	movabs $0x7fffffffffffffc0,%rax
    840f:	ff ff 7f 
    8412:	48 89 c2             	mov    %rax,%rdx
    8415:	48 29 ca             	sub    %rcx,%rdx
    8418:	49 39 d4             	cmp    %rdx,%r12
    841b:	0f 87 50 04 00 00    	ja     8871 <_ZNSt6vectorIbSaIbEE14_M_fill_insertESt13_Bit_iteratormb+0x671>
    8421:	49 39 cc             	cmp    %rcx,%r12
    8424:	48 89 ca             	mov    %rcx,%rdx
    8427:	49 0f 43 d4          	cmovae %r12,%rdx
    842b:	48 01 d1             	add    %rdx,%rcx
    842e:	0f 82 49 04 00 00    	jb     887d <_ZNSt6vectorIbSaIbEE14_M_fill_insertESt13_Bit_iteratormb+0x67d>
    8434:	48 39 c1             	cmp    %rax,%rcx
    8437:	48 0f 47 c8          	cmova  %rax,%rcx
    843b:	48 83 c1 3f          	add    $0x3f,%rcx
    843f:	48 c1 e9 06          	shr    $0x6,%rcx
    8443:	48 8d 04 cd 00 00 00 	lea    0x0(,%rcx,8),%rax
    844a:	00 
    844b:	48 89 44 24 10       	mov    %rax,0x10(%rsp)
    8450:	48 89 c7             	mov    %rax,%rdi
    8453:	e8 58 d0 ff ff       	callq  54b0 <_Znwm@plt>
    8458:	48 8b 33             	mov    (%rbx),%rsi
    845b:	49 89 ee             	mov    %rbp,%r14
    845e:	49 89 c7             	mov    %rax,%r15
    8461:	49 29 f6             	sub    %rsi,%r14
    8464:	48 39 ee             	cmp    %rbp,%rsi
    8467:	74 15                	je     847e <_ZNSt6vectorIbSaIbEE14_M_fill_insertESt13_Bit_iteratormb+0x27e>
    8469:	4c 89 f2             	mov    %r14,%rdx
    846c:	48 89 c7             	mov    %rax,%rdi
    846f:	48 89 74 24 18       	mov    %rsi,0x18(%rsp)
    8474:	e8 27 d3 ff ff       	callq  57a0 <memmove@plt>
    8479:	48 8b 74 24 18       	mov    0x18(%rsp),%rsi
    847e:	45 89 e8             	mov    %r13d,%r8d
    8481:	4b 8d 3c 37          	lea    (%r15,%r14,1),%rdi
    8485:	4c 89 44 24 18       	mov    %r8,0x18(%rsp)
    848a:	4d 85 c0             	test   %r8,%r8
    848d:	0f 84 d5 03 00 00    	je     8868 <_ZNSt6vectorIbSaIbEE14_M_fill_insertESt13_Bit_iteratormb+0x668>
    8493:	31 d2                	xor    %edx,%edx
    8495:	49 89 ea             	mov    %rbp,%r10
    8498:	41 bb 01 00 00 00    	mov    $0x1,%r11d
    849e:	89 d1                	mov    %edx,%ecx
    84a0:	eb 0f                	jmp    84b1 <_ZNSt6vectorIbSaIbEE14_M_fill_insertESt13_Bit_iteratormb+0x2b1>
    84a2:	66 0f 1f 44 00 00    	nopw   0x0(%rax,%rax,1)
    84a8:	83 c1 01             	add    $0x1,%ecx
    84ab:	49 83 e8 01          	sub    $0x1,%r8
    84af:	74 37                	je     84e8 <_ZNSt6vectorIbSaIbEE14_M_fill_insertESt13_Bit_iteratormb+0x2e8>
    84b1:	4c 89 da             	mov    %r11,%rdx
    84b4:	4c 8b 37             	mov    (%rdi),%r14
    84b7:	48 d3 e2             	shl    %cl,%rdx
    84ba:	48 89 d0             	mov    %rdx,%rax
    84bd:	4d 89 f1             	mov    %r14,%r9
    84c0:	48 f7 d0             	not    %rax
    84c3:	49 09 d1             	or     %rdx,%r9
    84c6:	4c 21 f0             	and    %r14,%rax
    84c9:	49 85 12             	test   %rdx,(%r10)
    84cc:	49 0f 45 c1          	cmovne %r9,%rax
    84d0:	48 89 07             	mov    %rax,(%rdi)
    84d3:	83 f9 3f             	cmp    $0x3f,%ecx
    84d6:	75 d0                	jne    84a8 <_ZNSt6vectorIbSaIbEE14_M_fill_insertESt13_Bit_iteratormb+0x2a8>
    84d8:	49 83 c2 08          	add    $0x8,%r10
    84dc:	48 83 c7 08          	add    $0x8,%rdi
    84e0:	31 c9                	xor    %ecx,%ecx
    84e2:	49 83 e8 01          	sub    $0x1,%r8
    84e6:	75 c9                	jne    84b1 <_ZNSt6vectorIbSaIbEE14_M_fill_insertESt13_Bit_iteratormb+0x2b1>
    84e8:	89 c9                	mov    %ecx,%ecx
    84ea:	48 89 ca             	mov    %rcx,%rdx
    84ed:	49 01 cc             	add    %rcx,%r12
    84f0:	49 8d 44 24 3f       	lea    0x3f(%r12),%rax
    84f5:	49 0f 49 c4          	cmovns %r12,%rax
    84f9:	48 c1 f8 06          	sar    $0x6,%rax
    84fd:	4c 8d 34 c7          	lea    (%rdi,%rax,8),%r14
    8501:	4c 89 e0             	mov    %r12,%rax
    8504:	48 c1 f8 3f          	sar    $0x3f,%rax
    8508:	48 c1 e8 3a          	shr    $0x3a,%rax
    850c:	4d 8d 04 04          	lea    (%r12,%rax,1),%r8
    8510:	41 83 e0 3f          	and    $0x3f,%r8d
    8514:	49 29 c0             	sub    %rax,%r8
    8517:	79 08                	jns    8521 <_ZNSt6vectorIbSaIbEE14_M_fill_insertESt13_Bit_iteratormb+0x321>
    8519:	49 83 c0 40          	add    $0x40,%r8
    851d:	49 83 ee 08          	sub    $0x8,%r14
    8521:	45 89 c4             	mov    %r8d,%r12d
    8524:	49 39 fe             	cmp    %rdi,%r14
    8527:	0f 84 bb 02 00 00    	je     87e8 <_ZNSt6vectorIbSaIbEE14_M_fill_insertESt13_Bit_iteratormb+0x5e8>
    852d:	85 d2                	test   %edx,%edx
    852f:	0f 84 6b 02 00 00    	je     87a0 <_ZNSt6vectorIbSaIbEE14_M_fill_insertESt13_Bit_iteratormb+0x5a0>
    8535:	89 d1                	mov    %edx,%ecx
    8537:	48 8d 77 08          	lea    0x8(%rdi),%rsi
    853b:	48 c7 c0 ff ff ff ff 	mov    $0xffffffffffffffff,%rax
    8542:	4c 89 f2             	mov    %r14,%rdx
    8545:	48 d3 e0             	shl    %cl,%rax
    8548:	48 29 f2             	sub    %rsi,%rdx
    854b:	80 3c 24 00          	cmpb   $0x0,(%rsp)
    854f:	48 8b 0f             	mov    (%rdi),%rcx
    8552:	0f 84 f8 02 00 00    	je     8850 <_ZNSt6vectorIbSaIbEE14_M_fill_insertESt13_Bit_iteratormb+0x650>
    8558:	48 09 c8             	or     %rcx,%rax
    855b:	48 89 07             	mov    %rax,(%rdi)
    855e:	48 89 f7             	mov    %rsi,%rdi
    8561:	be ff ff ff ff       	mov    $0xffffffff,%esi
    8566:	4c 89 04 24          	mov    %r8,(%rsp)
    856a:	e8 f1 cc ff ff       	callq  5260 <memset@plt>
    856f:	4c 8b 04 24          	mov    (%rsp),%r8
    8573:	4d 85 c0             	test   %r8,%r8
    8576:	0f 85 b4 02 00 00    	jne    8830 <_ZNSt6vectorIbSaIbEE14_M_fill_insertESt13_Bit_iteratormb+0x630>
    857c:	48 8b 33             	mov    (%rbx),%rsi
    857f:	48 8b 43 10          	mov    0x10(%rbx),%rax
    8583:	8b 53 18             	mov    0x18(%rbx),%edx
    8586:	48 29 e8             	sub    %rbp,%rax
    8589:	48 8d 14 c2          	lea    (%rdx,%rax,8),%rdx
    858d:	48 2b 54 24 18       	sub    0x18(%rsp),%rdx
    8592:	48 85 d2             	test   %rdx,%rdx
    8595:	7e 70                	jle    8607 <_ZNSt6vectorIbSaIbEE14_M_fill_insertESt13_Bit_iteratormb+0x407>
    8597:	4c 8b 4c 24 08       	mov    0x8(%rsp),%r9
    859c:	41 b8 01 00 00 00    	mov    $0x1,%r8d
    85a2:	eb 18                	jmp    85bc <_ZNSt6vectorIbSaIbEE14_M_fill_insertESt13_Bit_iteratormb+0x3bc>
    85a4:	0f 1f 40 00          	nopl   0x0(%rax)
    85a8:	41 83 c5 01          	add    $0x1,%r13d
    85ac:	41 83 fc 3f          	cmp    $0x3f,%r12d
    85b0:	74 48                	je     85fa <_ZNSt6vectorIbSaIbEE14_M_fill_insertESt13_Bit_iteratormb+0x3fa>
    85b2:	41 83 c4 01          	add    $0x1,%r12d
    85b6:	48 83 ea 01          	sub    $0x1,%rdx
    85ba:	74 4b                	je     8607 <_ZNSt6vectorIbSaIbEE14_M_fill_insertESt13_Bit_iteratormb+0x407>
    85bc:	49 8b 3e             	mov    (%r14),%rdi
    85bf:	44 89 e1             	mov    %r12d,%ecx
    85c2:	4c 89 c0             	mov    %r8,%rax
    85c5:	4d 89 c2             	mov    %r8,%r10
    85c8:	48 d3 e0             	shl    %cl,%rax
    85cb:	44 89 e9             	mov    %r13d,%ecx
    85ce:	49 d3 e2             	shl    %cl,%r10
    85d1:	48 89 f9             	mov    %rdi,%rcx
    85d4:	48 09 c1             	or     %rax,%rcx
    85d7:	48 f7 d0             	not    %rax
    85da:	48 21 f8             	and    %rdi,%rax
    85dd:	4d 85 11             	test   %r10,(%r9)
    85e0:	48 0f 45 c1          	cmovne %rcx,%rax
    85e4:	49 89 06             	mov    %rax,(%r14)
    85e7:	41 83 fd 3f          	cmp    $0x3f,%r13d
    85eb:	75 bb                	jne    85a8 <_ZNSt6vectorIbSaIbEE14_M_fill_insertESt13_Bit_iteratormb+0x3a8>
    85ed:	49 83 c1 08          	add    $0x8,%r9
    85f1:	45 31 ed             	xor    %r13d,%r13d
    85f4:	41 83 fc 3f          	cmp    $0x3f,%r12d
    85f8:	75 b8                	jne    85b2 <_ZNSt6vectorIbSaIbEE14_M_fill_insertESt13_Bit_iteratormb+0x3b2>
    85fa:	49 83 c6 08          	add    $0x8,%r14
    85fe:	45 31 e4             	xor    %r12d,%r12d
    8601:	48 83 ea 01          	sub    $0x1,%rdx
    8605:	75 b5                	jne    85bc <_ZNSt6vectorIbSaIbEE14_M_fill_insertESt13_Bit_iteratormb+0x3bc>
    8607:	48 85 f6             	test   %rsi,%rsi
    860a:	74 25                	je     8631 <_ZNSt6vectorIbSaIbEE14_M_fill_insertESt13_Bit_iteratormb+0x431>
    860c:	48 89 f7             	mov    %rsi,%rdi
    860f:	e8 7c ce ff ff       	callq  5490 <_ZdlPv@plt>
    8614:	48 c7 43 10 00 00 00 	movq   $0x0,0x10(%rbx)
    861b:	00 
    861c:	c7 43 18 00 00 00 00 	movl   $0x0,0x18(%rbx)
    8623:	48 c7 03 00 00 00 00 	movq   $0x0,(%rbx)
    862a:	c7 43 08 00 00 00 00 	movl   $0x0,0x8(%rbx)
    8631:	48 8b 44 24 10       	mov    0x10(%rsp),%rax
    8636:	4c 89 3b             	mov    %r15,(%rbx)
    8639:	c7 43 08 00 00 00 00 	movl   $0x0,0x8(%rbx)
    8640:	4c 01 f8             	add    %r15,%rax
    8643:	4c 89 73 10          	mov    %r14,0x10(%rbx)
    8647:	48 89 43 20          	mov    %rax,0x20(%rbx)
    864b:	44 89 63 18          	mov    %r12d,0x18(%rbx)
    864f:	48 83 c4 38          	add    $0x38,%rsp
    8653:	5b                   	pop    %rbx
    8654:	5d                   	pop    %rbp
    8655:	41 5c                	pop    %r12
    8657:	41 5d                	pop    %r13
    8659:	41 5e                	pop    %r14
    865b:	41 5f                	pop    %r15
    865d:	c3                   	retq   
    865e:	66 90                	xchg   %ax,%ax
    8660:	48 f7 d2             	not    %rdx
    8663:	48 21 ca             	and    %rcx,%rdx
    8666:	49 89 11             	mov    %rdx,(%r9)
    8669:	48 83 ee 01          	sub    $0x1,%rsi
    866d:	0f 84 a6 fc ff ff    	je     8319 <_ZNSt6vectorIbSaIbEE14_M_fill_insertESt13_Bit_iteratormb+0x119>
    8673:	45 85 c0             	test   %r8d,%r8d
    8676:	0f 85 65 fc ff ff    	jne    82e1 <_ZNSt6vectorIbSaIbEE14_M_fill_insertESt13_Bit_iteratormb+0xe1>
    867c:	49 83 ea 08          	sub    $0x8,%r10
    8680:	4d 89 f3             	mov    %r14,%r11
    8683:	41 b8 3f 00 00 00    	mov    $0x3f,%r8d
    8689:	85 ff                	test   %edi,%edi
    868b:	0f 85 65 fc ff ff    	jne    82f6 <_ZNSt6vectorIbSaIbEE14_M_fill_insertESt13_Bit_iteratormb+0xf6>
    8691:	49 83 e9 08          	sub    $0x8,%r9
    8695:	4c 89 f2             	mov    %r14,%rdx
    8698:	bf 3f 00 00 00       	mov    $0x3f,%edi
    869d:	e9 5f fc ff ff       	jmpq   8301 <_ZNSt6vectorIbSaIbEE14_M_fill_insertESt13_Bit_iteratormb+0x101>
    86a2:	66 0f 1f 44 00 00    	nopw   0x0(%rax,%rax,1)
    86a8:	44 89 e9             	mov    %r13d,%ecx
    86ab:	48 8d 55 08          	lea    0x8(%rbp),%rdx
    86af:	48 c7 c0 ff ff ff ff 	mov    $0xffffffffffffffff,%rax
    86b6:	4d 89 f9             	mov    %r15,%r9
    86b9:	48 d3 e0             	shl    %cl,%rax
    86bc:	49 29 d1             	sub    %rdx,%r9
    86bf:	80 3c 24 00          	cmpb   $0x0,(%rsp)
    86c3:	48 8b 4d 00          	mov    0x0(%rbp),%rcx
    86c7:	74 37                	je     8700 <_ZNSt6vectorIbSaIbEE14_M_fill_insertESt13_Bit_iteratormb+0x500>
    86c9:	48 09 c8             	or     %rcx,%rax
    86cc:	48 89 54 24 08       	mov    %rdx,0x8(%rsp)
    86d1:	48 89 45 00          	mov    %rax,0x0(%rbp)
    86d5:	e9 9c fc ff ff       	jmpq   8376 <_ZNSt6vectorIbSaIbEE14_M_fill_insertESt13_Bit_iteratormb+0x176>
    86da:	66 0f 1f 44 00 00    	nopw   0x0(%rax,%rax,1)
    86e0:	48 8b 54 24 10       	mov    0x10(%rsp),%rdx
    86e5:	48 83 c0 40          	add    $0x40,%rax
    86e9:	48 83 ea 08          	sub    $0x8,%rdx
    86ed:	48 89 53 10          	mov    %rdx,0x10(%rbx)
    86f1:	e9 fb fc ff ff       	jmpq   83f1 <_ZNSt6vectorIbSaIbEE14_M_fill_insertESt13_Bit_iteratormb+0x1f1>
    86f6:	66 2e 0f 1f 84 00 00 	nopw   %cs:0x0(%rax,%rax,1)
    86fd:	00 00 00 
    8700:	48 f7 d0             	not    %rax
    8703:	48 89 54 24 08       	mov    %rdx,0x8(%rsp)
    8708:	48 21 c8             	and    %rcx,%rax
    870b:	48 89 45 00          	mov    %rax,0x0(%rbp)
    870f:	48 8b 7c 24 08       	mov    0x8(%rsp),%rdi
    8714:	31 f6                	xor    %esi,%esi
    8716:	4c 89 ca             	mov    %r9,%rdx
    8719:	44 89 04 24          	mov    %r8d,(%rsp)
    871d:	e8 3e cb ff ff       	callq  5260 <memset@plt>
    8722:	4d 85 f6             	test   %r14,%r14
    8725:	44 8b 04 24          	mov    (%rsp),%r8d
    8729:	0f 84 7b fc ff ff    	je     83aa <_ZNSt6vectorIbSaIbEE14_M_fill_insertESt13_Bit_iteratormb+0x1aa>
    872f:	b9 40 00 00 00       	mov    $0x40,%ecx
    8734:	48 c7 c0 ff ff ff ff 	mov    $0xffffffffffffffff,%rax
    873b:	44 29 c1             	sub    %r8d,%ecx
    873e:	48 d3 e8             	shr    %cl,%rax
    8741:	48 f7 d0             	not    %rax
    8744:	49 21 07             	and    %rax,(%r15)
    8747:	e9 5e fc ff ff       	jmpq   83aa <_ZNSt6vectorIbSaIbEE14_M_fill_insertESt13_Bit_iteratormb+0x1aa>
    874c:	0f 1f 40 00          	nopl   0x0(%rax)
    8750:	45 39 ee             	cmp    %r13d,%r14d
    8753:	0f 84 86 fc ff ff    	je     83df <_ZNSt6vectorIbSaIbEE14_M_fill_insertESt13_Bit_iteratormb+0x1df>
    8759:	48 c7 c6 ff ff ff ff 	mov    $0xffffffffffffffff,%rsi
    8760:	b9 40 00 00 00       	mov    $0x40,%ecx
    8765:	44 29 f1             	sub    %r14d,%ecx
    8768:	48 89 f2             	mov    %rsi,%rdx
    876b:	48 d3 ea             	shr    %cl,%rdx
    876e:	44 89 e9             	mov    %r13d,%ecx
    8771:	48 d3 e6             	shl    %cl,%rsi
    8774:	48 89 f1             	mov    %rsi,%rcx
    8777:	48 21 d1             	and    %rdx,%rcx
    877a:	49 8b 17             	mov    (%r15),%rdx
    877d:	48 89 ce             	mov    %rcx,%rsi
    8780:	48 f7 d6             	not    %rsi
    8783:	48 21 d6             	and    %rdx,%rsi
    8786:	48 09 ca             	or     %rcx,%rdx
    8789:	80 3c 24 00          	cmpb   $0x0,(%rsp)
    878d:	48 0f 44 d6          	cmove  %rsi,%rdx
    8791:	49 89 17             	mov    %rdx,(%r15)
    8794:	e9 46 fc ff ff       	jmpq   83df <_ZNSt6vectorIbSaIbEE14_M_fill_insertESt13_Bit_iteratormb+0x1df>
    8799:	0f 1f 80 00 00 00 00 	nopl   0x0(%rax)
    87a0:	4c 89 f2             	mov    %r14,%rdx
    87a3:	48 29 fa             	sub    %rdi,%rdx
    87a6:	80 3c 24 00          	cmpb   $0x0,(%rsp)
    87aa:	0f 85 b1 fd ff ff    	jne    8561 <_ZNSt6vectorIbSaIbEE14_M_fill_insertESt13_Bit_iteratormb+0x361>
    87b0:	31 f6                	xor    %esi,%esi
    87b2:	4c 89 04 24          	mov    %r8,(%rsp)
    87b6:	e8 a5 ca ff ff       	callq  5260 <memset@plt>
    87bb:	4c 8b 04 24          	mov    (%rsp),%r8
    87bf:	4d 85 c0             	test   %r8,%r8
    87c2:	0f 84 b4 fd ff ff    	je     857c <_ZNSt6vectorIbSaIbEE14_M_fill_insertESt13_Bit_iteratormb+0x37c>
    87c8:	b9 40 00 00 00       	mov    $0x40,%ecx
    87cd:	48 c7 c0 ff ff ff ff 	mov    $0xffffffffffffffff,%rax
    87d4:	44 29 e1             	sub    %r12d,%ecx
    87d7:	48 d3 e8             	shr    %cl,%rax
    87da:	48 f7 d0             	not    %rax
    87dd:	49 21 06             	and    %rax,(%r14)
    87e0:	e9 97 fd ff ff       	jmpq   857c <_ZNSt6vectorIbSaIbEE14_M_fill_insertESt13_Bit_iteratormb+0x37c>
    87e5:	0f 1f 00             	nopl   (%rax)
    87e8:	44 39 c2             	cmp    %r8d,%edx
    87eb:	0f 84 8e fd ff ff    	je     857f <_ZNSt6vectorIbSaIbEE14_M_fill_insertESt13_Bit_iteratormb+0x37f>
    87f1:	48 c7 c7 ff ff ff ff 	mov    $0xffffffffffffffff,%rdi
    87f8:	b9 40 00 00 00       	mov    $0x40,%ecx
    87fd:	44 29 c1             	sub    %r8d,%ecx
    8800:	48 89 f8             	mov    %rdi,%rax
    8803:	48 d3 e8             	shr    %cl,%rax
    8806:	89 d1                	mov    %edx,%ecx
    8808:	48 d3 e7             	shl    %cl,%rdi
    880b:	49 8b 0e             	mov    (%r14),%rcx
    880e:	48 21 f8             	and    %rdi,%rax
    8811:	48 89 c2             	mov    %rax,%rdx
    8814:	48 09 c8             	or     %rcx,%rax
    8817:	48 f7 d2             	not    %rdx
    881a:	48 21 ca             	and    %rcx,%rdx
    881d:	80 3c 24 00          	cmpb   $0x0,(%rsp)
    8821:	48 0f 44 c2          	cmove  %rdx,%rax
    8825:	49 89 06             	mov    %rax,(%r14)
    8828:	e9 52 fd ff ff       	jmpq   857f <_ZNSt6vectorIbSaIbEE14_M_fill_insertESt13_Bit_iteratormb+0x37f>
    882d:	0f 1f 00             	nopl   (%rax)
    8830:	b9 40 00 00 00       	mov    $0x40,%ecx
    8835:	48 c7 c0 ff ff ff ff 	mov    $0xffffffffffffffff,%rax
    883c:	44 29 e1             	sub    %r12d,%ecx
    883f:	48 d3 e8             	shr    %cl,%rax
    8842:	49 09 06             	or     %rax,(%r14)
    8845:	e9 32 fd ff ff       	jmpq   857c <_ZNSt6vectorIbSaIbEE14_M_fill_insertESt13_Bit_iteratormb+0x37c>
    884a:	66 0f 1f 44 00 00    	nopw   0x0(%rax,%rax,1)
    8850:	48 f7 d0             	not    %rax
    8853:	48 21 c8             	and    %rcx,%rax
    8856:	48 89 07             	mov    %rax,(%rdi)
    8859:	48 89 f7             	mov    %rsi,%rdi
    885c:	e9 4f ff ff ff       	jmpq   87b0 <_ZNSt6vectorIbSaIbEE14_M_fill_insertESt13_Bit_iteratormb+0x5b0>
    8861:	0f 1f 80 00 00 00 00 	nopl   0x0(%rax)
    8868:	31 c9                	xor    %ecx,%ecx
    886a:	31 d2                	xor    %edx,%edx
    886c:	e9 7c fc ff ff       	jmpq   84ed <_ZNSt6vectorIbSaIbEE14_M_fill_insertESt13_Bit_iteratormb+0x2ed>
    8871:	48 8d 3d f6 3a 01 00 	lea    0x13af6(%rip),%rdi        # 1c36e <_fini+0x128a>
    8878:	e8 c3 c9 ff ff       	callq  5240 <_ZSt20__throw_length_errorPKc@plt>
    887d:	48 b8 f8 ff ff ff ff 	movabs $0xffffffffffffff8,%rax
    8884:	ff ff 0f 
    8887:	48 89 44 24 10       	mov    %rax,0x10(%rsp)
    888c:	48 89 c7             	mov    %rax,%rdi
    888f:	e9 bf fb ff ff       	jmpq   8453 <_ZNSt6vectorIbSaIbEE14_M_fill_insertESt13_Bit_iteratormb+0x253>
    8894:	66 2e 0f 1f 84 00 00 	nopw   %cs:0x0(%rax,%rax,1)
    889b:	00 00 00 
    889e:	66 90                	xchg   %ax,%ax

00000000000088a0 <_ZNSt6vectorIN8pybind116detail13function_callESaIS2_EE17_M_realloc_insertIJS2_EEEvN9__gnu_cxx17__normal_iteratorIPS2_S4_EEDpOT_>:
    88a0:	48 b9 c5 4e ec c4 4e 	movabs $0x4ec4ec4ec4ec4ec5,%rcx
    88a7:	ec c4 4e 
    88aa:	41 57                	push   %r15
    88ac:	41 56                	push   %r14
    88ae:	41 55                	push   %r13
    88b0:	41 54                	push   %r12
    88b2:	55                   	push   %rbp
    88b3:	53                   	push   %rbx
    88b4:	48 89 f3             	mov    %rsi,%rbx
    88b7:	48 be 3b b1 13 3b b1 	movabs $0x13b13b13b13b13b,%rsi
    88be:	13 3b 01 
    88c1:	48 83 ec 28          	sub    $0x28,%rsp
    88c5:	48 8b 6f 08          	mov    0x8(%rdi),%rbp
    88c9:	4c 8b 2f             	mov    (%rdi),%r13
    88cc:	48 89 e8             	mov    %rbp,%rax
    88cf:	4c 29 e8             	sub    %r13,%rax
    88d2:	48 c1 f8 03          	sar    $0x3,%rax
    88d6:	48 0f af c1          	imul   %rcx,%rax
    88da:	48 39 f0             	cmp    %rsi,%rax
    88dd:	0f 84 b8 03 00 00    	je     8c9b <_ZNSt6vectorIN8pybind116detail13function_callESaIS2_EE17_M_realloc_insertIJS2_EEEvN9__gnu_cxx17__normal_iteratorIPS2_S4_EEDpOT_+0x3fb>
    88e3:	48 89 d9             	mov    %rbx,%rcx
    88e6:	49 89 fe             	mov    %rdi,%r14
    88e9:	4c 29 e9             	sub    %r13,%rcx
    88ec:	48 85 c0             	test   %rax,%rax
    88ef:	0f 84 8b 03 00 00    	je     8c80 <_ZNSt6vectorIN8pybind116detail13function_callESaIS2_EE17_M_realloc_insertIJS2_EEEvN9__gnu_cxx17__normal_iteratorIPS2_S4_EEDpOT_+0x3e0>
    88f5:	49 bf f8 ff ff ff ff 	movabs $0x7ffffffffffffff8,%r15
    88fc:	ff ff 7f 
    88ff:	48 8d 3c 00          	lea    (%rax,%rax,1),%rdi
    8903:	48 39 f8             	cmp    %rdi,%rax
    8906:	0f 86 54 03 00 00    	jbe    8c60 <_ZNSt6vectorIN8pybind116detail13function_callESaIS2_EE17_M_realloc_insertIJS2_EEEvN9__gnu_cxx17__normal_iteratorIPS2_S4_EEDpOT_+0x3c0>
    890c:	4c 89 ff             	mov    %r15,%rdi
    890f:	48 89 54 24 18       	mov    %rdx,0x18(%rsp)
    8914:	48 89 4c 24 10       	mov    %rcx,0x10(%rsp)
    8919:	e8 92 cb ff ff       	callq  54b0 <_Znwm@plt>
    891e:	48 8b 4c 24 10       	mov    0x10(%rsp),%rcx
    8923:	48 8b 54 24 18       	mov    0x18(%rsp),%rdx
    8928:	49 01 c7             	add    %rax,%r15
    892b:	48 89 04 24          	mov    %rax,(%rsp)
    892f:	48 8d 70 68          	lea    0x68(%rax),%rsi
    8933:	4c 89 7c 24 08       	mov    %r15,0x8(%rsp)
    8938:	4c 8b 24 24          	mov    (%rsp),%r12
    893c:	66 0f ef c0          	pxor   %xmm0,%xmm0
    8940:	f3 0f 6f 5a 10       	movdqu 0x10(%rdx),%xmm3
    8945:	48 c7 42 18 00 00 00 	movq   $0x0,0x18(%rdx)
    894c:	00 
    894d:	f3 0f 6f 62 20       	movdqu 0x20(%rdx),%xmm4
    8952:	f3 0f 6f 6a 30       	movdqu 0x30(%rdx),%xmm5
    8957:	48 c7 42 20 00 00 00 	movq   $0x0,0x20(%rdx)
    895e:	00 
    895f:	49 8d 04 0c          	lea    (%r12,%rcx,1),%rax
    8963:	48 8b 4a 40          	mov    0x40(%rdx),%rcx
    8967:	f3 0f 6f 12          	movdqu (%rdx),%xmm2
    896b:	48 c7 42 30 00 00 00 	movq   $0x0,0x30(%rdx)
    8972:	00 
    8973:	c7 42 38 00 00 00 00 	movl   $0x0,0x38(%rdx)
    897a:	48 89 48 40          	mov    %rcx,0x40(%rax)
    897e:	48 8b 4a 48          	mov    0x48(%rdx),%rcx
    8982:	c7 42 28 00 00 00 00 	movl   $0x0,0x28(%rdx)
    8989:	48 89 48 48          	mov    %rcx,0x48(%rax)
    898d:	48 8b 4a 50          	mov    0x50(%rdx),%rcx
    8991:	0f 11 42 08          	movups %xmm0,0x8(%rdx)
    8995:	48 89 48 50          	mov    %rcx,0x50(%rax)
    8999:	48 8b 4a 58          	mov    0x58(%rdx),%rcx
    899d:	48 c7 42 50 00 00 00 	movq   $0x0,0x50(%rdx)
    89a4:	00 
    89a5:	0f 11 42 40          	movups %xmm0,0x40(%rdx)
    89a9:	48 8b 52 60          	mov    0x60(%rdx),%rdx
    89ad:	48 89 48 58          	mov    %rcx,0x58(%rax)
    89b1:	48 89 50 60          	mov    %rdx,0x60(%rax)
    89b5:	0f 11 10             	movups %xmm2,(%rax)
    89b8:	0f 11 58 10          	movups %xmm3,0x10(%rax)
    89bc:	0f 11 60 20          	movups %xmm4,0x20(%rax)
    89c0:	0f 11 68 30          	movups %xmm5,0x30(%rax)
    89c4:	4c 39 eb             	cmp    %r13,%rbx
    89c7:	0f 84 5c 01 00 00    	je     8b29 <_ZNSt6vectorIN8pybind116detail13function_callESaIS2_EE17_M_realloc_insertIJS2_EEEvN9__gnu_cxx17__normal_iteratorIPS2_S4_EEDpOT_+0x289>
    89cd:	4d 89 ef             	mov    %r13,%r15
    89d0:	49 8b 0f             	mov    (%r15),%rcx
    89d3:	f3 41 0f 6f 57 20    	movdqu 0x20(%r15),%xmm2
    89d9:	66 0f ef c9          	pxor   %xmm1,%xmm1
    89dd:	49 89 0c 24          	mov    %rcx,(%r12)
    89e1:	49 8b 4f 08          	mov    0x8(%r15),%rcx
    89e5:	49 89 4c 24 08       	mov    %rcx,0x8(%r12)
    89ea:	49 8b 4f 10          	mov    0x10(%r15),%rcx
    89ee:	49 89 4c 24 10       	mov    %rcx,0x10(%r12)
    89f3:	49 8b 4f 18          	mov    0x18(%r15),%rcx
